
kernel/kernel:     file format elf64-littleriscv


Disassembly of section .text:

0000000080000000 <_entry>:
    80000000:	0000b117          	auipc	sp,0xb
    80000004:	80010113          	addi	sp,sp,-2048 # 8000a800 <stack0>
    80000008:	6505                	lui	a0,0x1
    8000000a:	f14025f3          	csrr	a1,mhartid
    8000000e:	0585                	addi	a1,a1,1
    80000010:	02b50533          	mul	a0,a0,a1
    80000014:	912a                	add	sp,sp,a0
    80000016:	070000ef          	jal	ra,80000086 <start>

000000008000001a <junk>:
    8000001a:	a001                	j	8000001a <junk>

000000008000001c <timerinit>:
// which arrive at timervec in kernelvec.S,
// which turns them into software interrupts for
// devintr() in trap.c.
void
timerinit()
{
    8000001c:	1141                	addi	sp,sp,-16
    8000001e:	e422                	sd	s0,8(sp)
    80000020:	0800                	addi	s0,sp,16
// which hart (core) is this?
static inline uint64
r_mhartid()
{
  uint64 x;
  asm volatile("csrr %0, mhartid" : "=r" (x) );
    80000022:	f14027f3          	csrr	a5,mhartid
  // each CPU has a separate source of timer interrupts.
  int id = r_mhartid();

  // ask the CLINT for a timer interrupt.
  int interval = 1000000; // cycles; about 1/10th second in qemu.
  *(uint64*)CLINT_MTIMECMP(id) = *(uint64*)CLINT_MTIME + interval;
    80000026:	0037969b          	slliw	a3,a5,0x3
    8000002a:	02004737          	lui	a4,0x2004
    8000002e:	96ba                	add	a3,a3,a4
    80000030:	0200c737          	lui	a4,0x200c
    80000034:	ff873603          	ld	a2,-8(a4) # 200bff8 <_entry-0x7dff4008>
    80000038:	000f4737          	lui	a4,0xf4
    8000003c:	24070713          	addi	a4,a4,576 # f4240 <_entry-0x7ff0bdc0>
    80000040:	963a                	add	a2,a2,a4
    80000042:	e290                	sd	a2,0(a3)

  // prepare information in scratch[] for timervec.
  // scratch[0..3] : space for timervec to save registers.
  // scratch[4] : address of CLINT MTIMECMP register.
  // scratch[5] : desired interval (in cycles) between timer interrupts.
  uint64 *scratch = &mscratch0[32 * id];
    80000044:	0057979b          	slliw	a5,a5,0x5
    80000048:	078e                	slli	a5,a5,0x3
    8000004a:	0000a617          	auipc	a2,0xa
    8000004e:	fb660613          	addi	a2,a2,-74 # 8000a000 <mscratch0>
    80000052:	97b2                	add	a5,a5,a2
  scratch[4] = CLINT_MTIMECMP(id);
    80000054:	f394                	sd	a3,32(a5)
  scratch[5] = interval;
    80000056:	f798                	sd	a4,40(a5)
}

static inline void 
w_mscratch(uint64 x)
{
  asm volatile("csrw mscratch, %0" : : "r" (x));
    80000058:	34079073          	csrw	mscratch,a5
  asm volatile("csrw mtvec, %0" : : "r" (x));
    8000005c:	00006797          	auipc	a5,0x6
    80000060:	d2478793          	addi	a5,a5,-732 # 80005d80 <timervec>
    80000064:	30579073          	csrw	mtvec,a5
  asm volatile("csrr %0, mstatus" : "=r" (x) );
    80000068:	300027f3          	csrr	a5,mstatus

  // set the machine-mode trap handler.
  w_mtvec((uint64)timervec);

  // enable machine-mode interrupts.
  w_mstatus(r_mstatus() | MSTATUS_MIE);
    8000006c:	0087e793          	ori	a5,a5,8
  asm volatile("csrw mstatus, %0" : : "r" (x));
    80000070:	30079073          	csrw	mstatus,a5
  asm volatile("csrr %0, mie" : "=r" (x) );
    80000074:	304027f3          	csrr	a5,mie

  // enable machine-mode timer interrupts.
  w_mie(r_mie() | MIE_MTIE);
    80000078:	0807e793          	ori	a5,a5,128
  asm volatile("csrw mie, %0" : : "r" (x));
    8000007c:	30479073          	csrw	mie,a5
}
    80000080:	6422                	ld	s0,8(sp)
    80000082:	0141                	addi	sp,sp,16
    80000084:	8082                	ret

0000000080000086 <start>:
{
    80000086:	1141                	addi	sp,sp,-16
    80000088:	e406                	sd	ra,8(sp)
    8000008a:	e022                	sd	s0,0(sp)
    8000008c:	0800                	addi	s0,sp,16
  asm volatile("csrr %0, mstatus" : "=r" (x) );
    8000008e:	300027f3          	csrr	a5,mstatus
  x &= ~MSTATUS_MPP_MASK;
    80000092:	7779                	lui	a4,0xffffe
    80000094:	7ff70713          	addi	a4,a4,2047 # ffffffffffffe7ff <end+0xffffffff7ffd67a3>
    80000098:	8ff9                	and	a5,a5,a4
  x |= MSTATUS_MPP_S;
    8000009a:	6705                	lui	a4,0x1
    8000009c:	80070713          	addi	a4,a4,-2048 # 800 <_entry-0x7ffff800>
    800000a0:	8fd9                	or	a5,a5,a4
  asm volatile("csrw mstatus, %0" : : "r" (x));
    800000a2:	30079073          	csrw	mstatus,a5
  asm volatile("csrw mepc, %0" : : "r" (x));
    800000a6:	00001797          	auipc	a5,0x1
    800000aa:	e8a78793          	addi	a5,a5,-374 # 80000f30 <main>
    800000ae:	34179073          	csrw	mepc,a5
  asm volatile("csrw satp, %0" : : "r" (x));
    800000b2:	4781                	li	a5,0
    800000b4:	18079073          	csrw	satp,a5
  asm volatile("csrw medeleg, %0" : : "r" (x));
    800000b8:	67c1                	lui	a5,0x10
    800000ba:	17fd                	addi	a5,a5,-1
    800000bc:	30279073          	csrw	medeleg,a5
  asm volatile("csrw mideleg, %0" : : "r" (x));
    800000c0:	30379073          	csrw	mideleg,a5
  asm volatile("csrr %0, sie" : "=r" (x) );
    800000c4:	104027f3          	csrr	a5,sie
  w_sie(r_sie() | SIE_SEIE | SIE_STIE | SIE_SSIE);
    800000c8:	2227e793          	ori	a5,a5,546
  asm volatile("csrw sie, %0" : : "r" (x));
    800000cc:	10479073          	csrw	sie,a5
  timerinit();
    800000d0:	00000097          	auipc	ra,0x0
    800000d4:	f4c080e7          	jalr	-180(ra) # 8000001c <timerinit>
  asm volatile("csrr %0, mhartid" : "=r" (x) );
    800000d8:	f14027f3          	csrr	a5,mhartid
  w_tp(id);
    800000dc:	2781                	sext.w	a5,a5
}

static inline void 
w_tp(uint64 x)
{
  asm volatile("mv tp, %0" : : "r" (x));
    800000de:	823e                	mv	tp,a5
  asm volatile("mret");
    800000e0:	30200073          	mret
}
    800000e4:	60a2                	ld	ra,8(sp)
    800000e6:	6402                	ld	s0,0(sp)
    800000e8:	0141                	addi	sp,sp,16
    800000ea:	8082                	ret

00000000800000ec <consoleread>:
// user_dist indicates whether dst is a user
// or kernel address.
//
int
consoleread(struct file *f, int user_dst, uint64 dst, int n)
{
    800000ec:	7119                	addi	sp,sp,-128
    800000ee:	fc86                	sd	ra,120(sp)
    800000f0:	f8a2                	sd	s0,112(sp)
    800000f2:	f4a6                	sd	s1,104(sp)
    800000f4:	f0ca                	sd	s2,96(sp)
    800000f6:	ecce                	sd	s3,88(sp)
    800000f8:	e8d2                	sd	s4,80(sp)
    800000fa:	e4d6                	sd	s5,72(sp)
    800000fc:	e0da                	sd	s6,64(sp)
    800000fe:	fc5e                	sd	s7,56(sp)
    80000100:	f862                	sd	s8,48(sp)
    80000102:	f466                	sd	s9,40(sp)
    80000104:	f06a                	sd	s10,32(sp)
    80000106:	ec6e                	sd	s11,24(sp)
    80000108:	0100                	addi	s0,sp,128
    8000010a:	8b2e                	mv	s6,a1
    8000010c:	8ab2                	mv	s5,a2
    8000010e:	8a36                	mv	s4,a3
  uint target;
  int c;
  char cbuf;

  target = n;
    80000110:	00068b9b          	sext.w	s7,a3
  acquire(&cons.lock);
    80000114:	00012517          	auipc	a0,0x12
    80000118:	6ec50513          	addi	a0,a0,1772 # 80012800 <cons>
    8000011c:	00001097          	auipc	ra,0x1
    80000120:	994080e7          	jalr	-1644(ra) # 80000ab0 <acquire>
  while(n > 0){
    // wait until interrupt handler has put some
    // input into cons.buffer.
    while(cons.r == cons.w){
    80000124:	00012497          	auipc	s1,0x12
    80000128:	6dc48493          	addi	s1,s1,1756 # 80012800 <cons>
      if(myproc()->killed){
        release(&cons.lock);
        return -1;
      }
      sleep(&cons.r, &cons.lock);
    8000012c:	89a6                	mv	s3,s1
    8000012e:	00012917          	auipc	s2,0x12
    80000132:	77290913          	addi	s2,s2,1906 # 800128a0 <cons+0xa0>
    }

    c = cons.buf[cons.r++ % INPUT_BUF];

    if(c == C('D')){  // end-of-file
    80000136:	4c91                	li	s9,4
      break;
    }

    // copy the input byte to the user-space buffer.
    cbuf = c;
    if(either_copyout(user_dst, dst, &cbuf, 1) == -1)
    80000138:	5d7d                	li	s10,-1
      break;

    dst++;
    --n;

    if(c == '\n'){
    8000013a:	4da9                	li	s11,10
  while(n > 0){
    8000013c:	07405863          	blez	s4,800001ac <consoleread+0xc0>
    while(cons.r == cons.w){
    80000140:	0a04a783          	lw	a5,160(s1)
    80000144:	0a44a703          	lw	a4,164(s1)
    80000148:	02f71463          	bne	a4,a5,80000170 <consoleread+0x84>
      if(myproc()->killed){
    8000014c:	00002097          	auipc	ra,0x2
    80000150:	91e080e7          	jalr	-1762(ra) # 80001a6a <myproc>
    80000154:	5d1c                	lw	a5,56(a0)
    80000156:	e7b5                	bnez	a5,800001c2 <consoleread+0xd6>
      sleep(&cons.r, &cons.lock);
    80000158:	85ce                	mv	a1,s3
    8000015a:	854a                	mv	a0,s2
    8000015c:	00002097          	auipc	ra,0x2
    80000160:	0ca080e7          	jalr	202(ra) # 80002226 <sleep>
    while(cons.r == cons.w){
    80000164:	0a04a783          	lw	a5,160(s1)
    80000168:	0a44a703          	lw	a4,164(s1)
    8000016c:	fef700e3          	beq	a4,a5,8000014c <consoleread+0x60>
    c = cons.buf[cons.r++ % INPUT_BUF];
    80000170:	0017871b          	addiw	a4,a5,1
    80000174:	0ae4a023          	sw	a4,160(s1)
    80000178:	07f7f713          	andi	a4,a5,127
    8000017c:	9726                	add	a4,a4,s1
    8000017e:	02074703          	lbu	a4,32(a4)
    80000182:	00070c1b          	sext.w	s8,a4
    if(c == C('D')){  // end-of-file
    80000186:	079c0663          	beq	s8,s9,800001f2 <consoleread+0x106>
    cbuf = c;
    8000018a:	f8e407a3          	sb	a4,-113(s0)
    if(either_copyout(user_dst, dst, &cbuf, 1) == -1)
    8000018e:	4685                	li	a3,1
    80000190:	f8f40613          	addi	a2,s0,-113
    80000194:	85d6                	mv	a1,s5
    80000196:	855a                	mv	a0,s6
    80000198:	00002097          	auipc	ra,0x2
    8000019c:	2ee080e7          	jalr	750(ra) # 80002486 <either_copyout>
    800001a0:	01a50663          	beq	a0,s10,800001ac <consoleread+0xc0>
    dst++;
    800001a4:	0a85                	addi	s5,s5,1
    --n;
    800001a6:	3a7d                	addiw	s4,s4,-1
    if(c == '\n'){
    800001a8:	f9bc1ae3          	bne	s8,s11,8000013c <consoleread+0x50>
      // a whole line has arrived, return to
      // the user-level read().
      break;
    }
  }
  release(&cons.lock);
    800001ac:	00012517          	auipc	a0,0x12
    800001b0:	65450513          	addi	a0,a0,1620 # 80012800 <cons>
    800001b4:	00001097          	auipc	ra,0x1
    800001b8:	9cc080e7          	jalr	-1588(ra) # 80000b80 <release>

  return target - n;
    800001bc:	414b853b          	subw	a0,s7,s4
    800001c0:	a811                	j	800001d4 <consoleread+0xe8>
        release(&cons.lock);
    800001c2:	00012517          	auipc	a0,0x12
    800001c6:	63e50513          	addi	a0,a0,1598 # 80012800 <cons>
    800001ca:	00001097          	auipc	ra,0x1
    800001ce:	9b6080e7          	jalr	-1610(ra) # 80000b80 <release>
        return -1;
    800001d2:	557d                	li	a0,-1
}
    800001d4:	70e6                	ld	ra,120(sp)
    800001d6:	7446                	ld	s0,112(sp)
    800001d8:	74a6                	ld	s1,104(sp)
    800001da:	7906                	ld	s2,96(sp)
    800001dc:	69e6                	ld	s3,88(sp)
    800001de:	6a46                	ld	s4,80(sp)
    800001e0:	6aa6                	ld	s5,72(sp)
    800001e2:	6b06                	ld	s6,64(sp)
    800001e4:	7be2                	ld	s7,56(sp)
    800001e6:	7c42                	ld	s8,48(sp)
    800001e8:	7ca2                	ld	s9,40(sp)
    800001ea:	7d02                	ld	s10,32(sp)
    800001ec:	6de2                	ld	s11,24(sp)
    800001ee:	6109                	addi	sp,sp,128
    800001f0:	8082                	ret
      if(n < target){
    800001f2:	000a071b          	sext.w	a4,s4
    800001f6:	fb777be3          	bgeu	a4,s7,800001ac <consoleread+0xc0>
        cons.r--;
    800001fa:	00012717          	auipc	a4,0x12
    800001fe:	6af72323          	sw	a5,1702(a4) # 800128a0 <cons+0xa0>
    80000202:	b76d                	j	800001ac <consoleread+0xc0>

0000000080000204 <consputc>:
  if(panicked){
    80000204:	00028797          	auipc	a5,0x28
    80000208:	e1c7a783          	lw	a5,-484(a5) # 80028020 <panicked>
    8000020c:	c391                	beqz	a5,80000210 <consputc+0xc>
    for(;;)
    8000020e:	a001                	j	8000020e <consputc+0xa>
{
    80000210:	1141                	addi	sp,sp,-16
    80000212:	e406                	sd	ra,8(sp)
    80000214:	e022                	sd	s0,0(sp)
    80000216:	0800                	addi	s0,sp,16
  if(c == BACKSPACE){
    80000218:	10000793          	li	a5,256
    8000021c:	00f50a63          	beq	a0,a5,80000230 <consputc+0x2c>
    uartputc(c);
    80000220:	00000097          	auipc	ra,0x0
    80000224:	5e2080e7          	jalr	1506(ra) # 80000802 <uartputc>
}
    80000228:	60a2                	ld	ra,8(sp)
    8000022a:	6402                	ld	s0,0(sp)
    8000022c:	0141                	addi	sp,sp,16
    8000022e:	8082                	ret
    uartputc('\b'); uartputc(' '); uartputc('\b');
    80000230:	4521                	li	a0,8
    80000232:	00000097          	auipc	ra,0x0
    80000236:	5d0080e7          	jalr	1488(ra) # 80000802 <uartputc>
    8000023a:	02000513          	li	a0,32
    8000023e:	00000097          	auipc	ra,0x0
    80000242:	5c4080e7          	jalr	1476(ra) # 80000802 <uartputc>
    80000246:	4521                	li	a0,8
    80000248:	00000097          	auipc	ra,0x0
    8000024c:	5ba080e7          	jalr	1466(ra) # 80000802 <uartputc>
    80000250:	bfe1                	j	80000228 <consputc+0x24>

0000000080000252 <consolewrite>:
{
    80000252:	715d                	addi	sp,sp,-80
    80000254:	e486                	sd	ra,72(sp)
    80000256:	e0a2                	sd	s0,64(sp)
    80000258:	fc26                	sd	s1,56(sp)
    8000025a:	f84a                	sd	s2,48(sp)
    8000025c:	f44e                	sd	s3,40(sp)
    8000025e:	f052                	sd	s4,32(sp)
    80000260:	ec56                	sd	s5,24(sp)
    80000262:	0880                	addi	s0,sp,80
    80000264:	89ae                	mv	s3,a1
    80000266:	84b2                	mv	s1,a2
    80000268:	8ab6                	mv	s5,a3
  acquire(&cons.lock);
    8000026a:	00012517          	auipc	a0,0x12
    8000026e:	59650513          	addi	a0,a0,1430 # 80012800 <cons>
    80000272:	00001097          	auipc	ra,0x1
    80000276:	83e080e7          	jalr	-1986(ra) # 80000ab0 <acquire>
  for(i = 0; i < n; i++){
    8000027a:	03505e63          	blez	s5,800002b6 <consolewrite+0x64>
    8000027e:	00148913          	addi	s2,s1,1
    80000282:	fffa879b          	addiw	a5,s5,-1
    80000286:	1782                	slli	a5,a5,0x20
    80000288:	9381                	srli	a5,a5,0x20
    8000028a:	993e                	add	s2,s2,a5
    if(either_copyin(&c, user_src, src+i, 1) == -1)
    8000028c:	5a7d                	li	s4,-1
    8000028e:	4685                	li	a3,1
    80000290:	8626                	mv	a2,s1
    80000292:	85ce                	mv	a1,s3
    80000294:	fbf40513          	addi	a0,s0,-65
    80000298:	00002097          	auipc	ra,0x2
    8000029c:	244080e7          	jalr	580(ra) # 800024dc <either_copyin>
    800002a0:	01450b63          	beq	a0,s4,800002b6 <consolewrite+0x64>
    consputc(c);
    800002a4:	fbf44503          	lbu	a0,-65(s0)
    800002a8:	00000097          	auipc	ra,0x0
    800002ac:	f5c080e7          	jalr	-164(ra) # 80000204 <consputc>
  for(i = 0; i < n; i++){
    800002b0:	0485                	addi	s1,s1,1
    800002b2:	fd249ee3          	bne	s1,s2,8000028e <consolewrite+0x3c>
  release(&cons.lock);
    800002b6:	00012517          	auipc	a0,0x12
    800002ba:	54a50513          	addi	a0,a0,1354 # 80012800 <cons>
    800002be:	00001097          	auipc	ra,0x1
    800002c2:	8c2080e7          	jalr	-1854(ra) # 80000b80 <release>
}
    800002c6:	8556                	mv	a0,s5
    800002c8:	60a6                	ld	ra,72(sp)
    800002ca:	6406                	ld	s0,64(sp)
    800002cc:	74e2                	ld	s1,56(sp)
    800002ce:	7942                	ld	s2,48(sp)
    800002d0:	79a2                	ld	s3,40(sp)
    800002d2:	7a02                	ld	s4,32(sp)
    800002d4:	6ae2                	ld	s5,24(sp)
    800002d6:	6161                	addi	sp,sp,80
    800002d8:	8082                	ret

00000000800002da <consoleintr>:
// do erase/kill processing, append to cons.buf,
// wake up consoleread() if a whole line has arrived.
//
void
consoleintr(int c)
{
    800002da:	1101                	addi	sp,sp,-32
    800002dc:	ec06                	sd	ra,24(sp)
    800002de:	e822                	sd	s0,16(sp)
    800002e0:	e426                	sd	s1,8(sp)
    800002e2:	e04a                	sd	s2,0(sp)
    800002e4:	1000                	addi	s0,sp,32
    800002e6:	84aa                	mv	s1,a0
  acquire(&cons.lock);
    800002e8:	00012517          	auipc	a0,0x12
    800002ec:	51850513          	addi	a0,a0,1304 # 80012800 <cons>
    800002f0:	00000097          	auipc	ra,0x0
    800002f4:	7c0080e7          	jalr	1984(ra) # 80000ab0 <acquire>

  switch(c){
    800002f8:	47d5                	li	a5,21
    800002fa:	0af48663          	beq	s1,a5,800003a6 <consoleintr+0xcc>
    800002fe:	0297ca63          	blt	a5,s1,80000332 <consoleintr+0x58>
    80000302:	47a1                	li	a5,8
    80000304:	0ef48763          	beq	s1,a5,800003f2 <consoleintr+0x118>
    80000308:	47c1                	li	a5,16
    8000030a:	10f49a63          	bne	s1,a5,8000041e <consoleintr+0x144>
  case C('P'):  // Print process list.
    procdump();
    8000030e:	00002097          	auipc	ra,0x2
    80000312:	224080e7          	jalr	548(ra) # 80002532 <procdump>
      }
    }
    break;
  }
  
  release(&cons.lock);
    80000316:	00012517          	auipc	a0,0x12
    8000031a:	4ea50513          	addi	a0,a0,1258 # 80012800 <cons>
    8000031e:	00001097          	auipc	ra,0x1
    80000322:	862080e7          	jalr	-1950(ra) # 80000b80 <release>
}
    80000326:	60e2                	ld	ra,24(sp)
    80000328:	6442                	ld	s0,16(sp)
    8000032a:	64a2                	ld	s1,8(sp)
    8000032c:	6902                	ld	s2,0(sp)
    8000032e:	6105                	addi	sp,sp,32
    80000330:	8082                	ret
  switch(c){
    80000332:	07f00793          	li	a5,127
    80000336:	0af48e63          	beq	s1,a5,800003f2 <consoleintr+0x118>
    if(c != 0 && cons.e-cons.r < INPUT_BUF){
    8000033a:	00012717          	auipc	a4,0x12
    8000033e:	4c670713          	addi	a4,a4,1222 # 80012800 <cons>
    80000342:	0a872783          	lw	a5,168(a4)
    80000346:	0a072703          	lw	a4,160(a4)
    8000034a:	9f99                	subw	a5,a5,a4
    8000034c:	07f00713          	li	a4,127
    80000350:	fcf763e3          	bltu	a4,a5,80000316 <consoleintr+0x3c>
      c = (c == '\r') ? '\n' : c;
    80000354:	47b5                	li	a5,13
    80000356:	0cf48763          	beq	s1,a5,80000424 <consoleintr+0x14a>
      consputc(c);
    8000035a:	8526                	mv	a0,s1
    8000035c:	00000097          	auipc	ra,0x0
    80000360:	ea8080e7          	jalr	-344(ra) # 80000204 <consputc>
      cons.buf[cons.e++ % INPUT_BUF] = c;
    80000364:	00012797          	auipc	a5,0x12
    80000368:	49c78793          	addi	a5,a5,1180 # 80012800 <cons>
    8000036c:	0a87a703          	lw	a4,168(a5)
    80000370:	0017069b          	addiw	a3,a4,1
    80000374:	0006861b          	sext.w	a2,a3
    80000378:	0ad7a423          	sw	a3,168(a5)
    8000037c:	07f77713          	andi	a4,a4,127
    80000380:	97ba                	add	a5,a5,a4
    80000382:	02978023          	sb	s1,32(a5)
      if(c == '\n' || c == C('D') || cons.e == cons.r+INPUT_BUF){
    80000386:	47a9                	li	a5,10
    80000388:	0cf48563          	beq	s1,a5,80000452 <consoleintr+0x178>
    8000038c:	4791                	li	a5,4
    8000038e:	0cf48263          	beq	s1,a5,80000452 <consoleintr+0x178>
    80000392:	00012797          	auipc	a5,0x12
    80000396:	50e7a783          	lw	a5,1294(a5) # 800128a0 <cons+0xa0>
    8000039a:	0807879b          	addiw	a5,a5,128
    8000039e:	f6f61ce3          	bne	a2,a5,80000316 <consoleintr+0x3c>
      cons.buf[cons.e++ % INPUT_BUF] = c;
    800003a2:	863e                	mv	a2,a5
    800003a4:	a07d                	j	80000452 <consoleintr+0x178>
    while(cons.e != cons.w &&
    800003a6:	00012717          	auipc	a4,0x12
    800003aa:	45a70713          	addi	a4,a4,1114 # 80012800 <cons>
    800003ae:	0a872783          	lw	a5,168(a4)
    800003b2:	0a472703          	lw	a4,164(a4)
          cons.buf[(cons.e-1) % INPUT_BUF] != '\n'){
    800003b6:	00012497          	auipc	s1,0x12
    800003ba:	44a48493          	addi	s1,s1,1098 # 80012800 <cons>
    while(cons.e != cons.w &&
    800003be:	4929                	li	s2,10
    800003c0:	f4f70be3          	beq	a4,a5,80000316 <consoleintr+0x3c>
          cons.buf[(cons.e-1) % INPUT_BUF] != '\n'){
    800003c4:	37fd                	addiw	a5,a5,-1
    800003c6:	07f7f713          	andi	a4,a5,127
    800003ca:	9726                	add	a4,a4,s1
    while(cons.e != cons.w &&
    800003cc:	02074703          	lbu	a4,32(a4)
    800003d0:	f52703e3          	beq	a4,s2,80000316 <consoleintr+0x3c>
      cons.e--;
    800003d4:	0af4a423          	sw	a5,168(s1)
      consputc(BACKSPACE);
    800003d8:	10000513          	li	a0,256
    800003dc:	00000097          	auipc	ra,0x0
    800003e0:	e28080e7          	jalr	-472(ra) # 80000204 <consputc>
    while(cons.e != cons.w &&
    800003e4:	0a84a783          	lw	a5,168(s1)
    800003e8:	0a44a703          	lw	a4,164(s1)
    800003ec:	fcf71ce3          	bne	a4,a5,800003c4 <consoleintr+0xea>
    800003f0:	b71d                	j	80000316 <consoleintr+0x3c>
    if(cons.e != cons.w){
    800003f2:	00012717          	auipc	a4,0x12
    800003f6:	40e70713          	addi	a4,a4,1038 # 80012800 <cons>
    800003fa:	0a872783          	lw	a5,168(a4)
    800003fe:	0a472703          	lw	a4,164(a4)
    80000402:	f0f70ae3          	beq	a4,a5,80000316 <consoleintr+0x3c>
      cons.e--;
    80000406:	37fd                	addiw	a5,a5,-1
    80000408:	00012717          	auipc	a4,0x12
    8000040c:	4af72023          	sw	a5,1184(a4) # 800128a8 <cons+0xa8>
      consputc(BACKSPACE);
    80000410:	10000513          	li	a0,256
    80000414:	00000097          	auipc	ra,0x0
    80000418:	df0080e7          	jalr	-528(ra) # 80000204 <consputc>
    8000041c:	bded                	j	80000316 <consoleintr+0x3c>
    if(c != 0 && cons.e-cons.r < INPUT_BUF){
    8000041e:	ee048ce3          	beqz	s1,80000316 <consoleintr+0x3c>
    80000422:	bf21                	j	8000033a <consoleintr+0x60>
      consputc(c);
    80000424:	4529                	li	a0,10
    80000426:	00000097          	auipc	ra,0x0
    8000042a:	dde080e7          	jalr	-546(ra) # 80000204 <consputc>
      cons.buf[cons.e++ % INPUT_BUF] = c;
    8000042e:	00012797          	auipc	a5,0x12
    80000432:	3d278793          	addi	a5,a5,978 # 80012800 <cons>
    80000436:	0a87a703          	lw	a4,168(a5)
    8000043a:	0017069b          	addiw	a3,a4,1
    8000043e:	0006861b          	sext.w	a2,a3
    80000442:	0ad7a423          	sw	a3,168(a5)
    80000446:	07f77713          	andi	a4,a4,127
    8000044a:	97ba                	add	a5,a5,a4
    8000044c:	4729                	li	a4,10
    8000044e:	02e78023          	sb	a4,32(a5)
        cons.w = cons.e;
    80000452:	00012797          	auipc	a5,0x12
    80000456:	44c7a923          	sw	a2,1106(a5) # 800128a4 <cons+0xa4>
        wakeup(&cons.r);
    8000045a:	00012517          	auipc	a0,0x12
    8000045e:	44650513          	addi	a0,a0,1094 # 800128a0 <cons+0xa0>
    80000462:	00002097          	auipc	ra,0x2
    80000466:	f4a080e7          	jalr	-182(ra) # 800023ac <wakeup>
    8000046a:	b575                	j	80000316 <consoleintr+0x3c>

000000008000046c <consoleinit>:

void
consoleinit(void)
{
    8000046c:	1141                	addi	sp,sp,-16
    8000046e:	e406                	sd	ra,8(sp)
    80000470:	e022                	sd	s0,0(sp)
    80000472:	0800                	addi	s0,sp,16
  initlock(&cons.lock, "cons");
    80000474:	00008597          	auipc	a1,0x8
    80000478:	ca458593          	addi	a1,a1,-860 # 80008118 <userret+0x88>
    8000047c:	00012517          	auipc	a0,0x12
    80000480:	38450513          	addi	a0,a0,900 # 80012800 <cons>
    80000484:	00000097          	auipc	ra,0x0
    80000488:	558080e7          	jalr	1368(ra) # 800009dc <initlock>

  uartinit();
    8000048c:	00000097          	auipc	ra,0x0
    80000490:	340080e7          	jalr	832(ra) # 800007cc <uartinit>

  // connect read and write system calls
  // to consoleread and consolewrite.
  devsw[CONSOLE].read = consoleread;
    80000494:	00020797          	auipc	a5,0x20
    80000498:	bcc78793          	addi	a5,a5,-1076 # 80020060 <devsw>
    8000049c:	00000717          	auipc	a4,0x0
    800004a0:	c5070713          	addi	a4,a4,-944 # 800000ec <consoleread>
    800004a4:	eb98                	sd	a4,16(a5)
  devsw[CONSOLE].write = consolewrite;
    800004a6:	00000717          	auipc	a4,0x0
    800004aa:	dac70713          	addi	a4,a4,-596 # 80000252 <consolewrite>
    800004ae:	ef98                	sd	a4,24(a5)
}
    800004b0:	60a2                	ld	ra,8(sp)
    800004b2:	6402                	ld	s0,0(sp)
    800004b4:	0141                	addi	sp,sp,16
    800004b6:	8082                	ret

00000000800004b8 <printint>:

static char digits[] = "0123456789abcdef";

static void
printint(int xx, int base, int sign)
{
    800004b8:	7179                	addi	sp,sp,-48
    800004ba:	f406                	sd	ra,40(sp)
    800004bc:	f022                	sd	s0,32(sp)
    800004be:	ec26                	sd	s1,24(sp)
    800004c0:	e84a                	sd	s2,16(sp)
    800004c2:	1800                	addi	s0,sp,48
  char buf[16];
  int i;
  uint x;

  if(sign && (sign = xx < 0))
    800004c4:	c219                	beqz	a2,800004ca <printint+0x12>
    800004c6:	08054663          	bltz	a0,80000552 <printint+0x9a>
    x = -xx;
  else
    x = xx;
    800004ca:	2501                	sext.w	a0,a0
    800004cc:	4881                	li	a7,0
    800004ce:	fd040693          	addi	a3,s0,-48

  i = 0;
    800004d2:	4701                	li	a4,0
  do {
    buf[i++] = digits[x % base];
    800004d4:	2581                	sext.w	a1,a1
    800004d6:	00009617          	auipc	a2,0x9
    800004da:	83a60613          	addi	a2,a2,-1990 # 80008d10 <digits>
    800004de:	883a                	mv	a6,a4
    800004e0:	2705                	addiw	a4,a4,1
    800004e2:	02b577bb          	remuw	a5,a0,a1
    800004e6:	1782                	slli	a5,a5,0x20
    800004e8:	9381                	srli	a5,a5,0x20
    800004ea:	97b2                	add	a5,a5,a2
    800004ec:	0007c783          	lbu	a5,0(a5)
    800004f0:	00f68023          	sb	a5,0(a3)
  } while((x /= base) != 0);
    800004f4:	0005079b          	sext.w	a5,a0
    800004f8:	02b5553b          	divuw	a0,a0,a1
    800004fc:	0685                	addi	a3,a3,1
    800004fe:	feb7f0e3          	bgeu	a5,a1,800004de <printint+0x26>

  if(sign)
    80000502:	00088b63          	beqz	a7,80000518 <printint+0x60>
    buf[i++] = '-';
    80000506:	fe040793          	addi	a5,s0,-32
    8000050a:	973e                	add	a4,a4,a5
    8000050c:	02d00793          	li	a5,45
    80000510:	fef70823          	sb	a5,-16(a4)
    80000514:	0028071b          	addiw	a4,a6,2

  while(--i >= 0)
    80000518:	02e05763          	blez	a4,80000546 <printint+0x8e>
    8000051c:	fd040793          	addi	a5,s0,-48
    80000520:	00e784b3          	add	s1,a5,a4
    80000524:	fff78913          	addi	s2,a5,-1
    80000528:	993a                	add	s2,s2,a4
    8000052a:	377d                	addiw	a4,a4,-1
    8000052c:	1702                	slli	a4,a4,0x20
    8000052e:	9301                	srli	a4,a4,0x20
    80000530:	40e90933          	sub	s2,s2,a4
    consputc(buf[i]);
    80000534:	fff4c503          	lbu	a0,-1(s1)
    80000538:	00000097          	auipc	ra,0x0
    8000053c:	ccc080e7          	jalr	-820(ra) # 80000204 <consputc>
  while(--i >= 0)
    80000540:	14fd                	addi	s1,s1,-1
    80000542:	ff2499e3          	bne	s1,s2,80000534 <printint+0x7c>
}
    80000546:	70a2                	ld	ra,40(sp)
    80000548:	7402                	ld	s0,32(sp)
    8000054a:	64e2                	ld	s1,24(sp)
    8000054c:	6942                	ld	s2,16(sp)
    8000054e:	6145                	addi	sp,sp,48
    80000550:	8082                	ret
    x = -xx;
    80000552:	40a0053b          	negw	a0,a0
  if(sign && (sign = xx < 0))
    80000556:	4885                	li	a7,1
    x = -xx;
    80000558:	bf9d                	j	800004ce <printint+0x16>

000000008000055a <panic>:
    release(&pr.lock);
}

void
panic(char *s)
{
    8000055a:	1101                	addi	sp,sp,-32
    8000055c:	ec06                	sd	ra,24(sp)
    8000055e:	e822                	sd	s0,16(sp)
    80000560:	e426                	sd	s1,8(sp)
    80000562:	1000                	addi	s0,sp,32
    80000564:	84aa                	mv	s1,a0
  pr.locking = 0;
    80000566:	00012797          	auipc	a5,0x12
    8000056a:	3607a523          	sw	zero,874(a5) # 800128d0 <pr+0x20>
  printf("PANIC: ");
    8000056e:	00008517          	auipc	a0,0x8
    80000572:	bb250513          	addi	a0,a0,-1102 # 80008120 <userret+0x90>
    80000576:	00000097          	auipc	ra,0x0
    8000057a:	03e080e7          	jalr	62(ra) # 800005b4 <printf>
  printf(s);
    8000057e:	8526                	mv	a0,s1
    80000580:	00000097          	auipc	ra,0x0
    80000584:	034080e7          	jalr	52(ra) # 800005b4 <printf>
  printf("\n");
    80000588:	00008517          	auipc	a0,0x8
    8000058c:	d0850513          	addi	a0,a0,-760 # 80008290 <userret+0x200>
    80000590:	00000097          	auipc	ra,0x0
    80000594:	024080e7          	jalr	36(ra) # 800005b4 <printf>
  printf("HINT: restart xv6 using 'make qemu-gdb', type 'b panic' (to set breakpoint in panic) in the gdb window, followed by 'c' (continue), and when the kernel hits the breakpoint, type 'bt' to get a backtrace\n");
    80000598:	00008517          	auipc	a0,0x8
    8000059c:	b9050513          	addi	a0,a0,-1136 # 80008128 <userret+0x98>
    800005a0:	00000097          	auipc	ra,0x0
    800005a4:	014080e7          	jalr	20(ra) # 800005b4 <printf>
  panicked = 1; // freeze other CPUs
    800005a8:	4785                	li	a5,1
    800005aa:	00028717          	auipc	a4,0x28
    800005ae:	a6f72b23          	sw	a5,-1418(a4) # 80028020 <panicked>
  for(;;)
    800005b2:	a001                	j	800005b2 <panic+0x58>

00000000800005b4 <printf>:
{
    800005b4:	7131                	addi	sp,sp,-192
    800005b6:	fc86                	sd	ra,120(sp)
    800005b8:	f8a2                	sd	s0,112(sp)
    800005ba:	f4a6                	sd	s1,104(sp)
    800005bc:	f0ca                	sd	s2,96(sp)
    800005be:	ecce                	sd	s3,88(sp)
    800005c0:	e8d2                	sd	s4,80(sp)
    800005c2:	e4d6                	sd	s5,72(sp)
    800005c4:	e0da                	sd	s6,64(sp)
    800005c6:	fc5e                	sd	s7,56(sp)
    800005c8:	f862                	sd	s8,48(sp)
    800005ca:	f466                	sd	s9,40(sp)
    800005cc:	f06a                	sd	s10,32(sp)
    800005ce:	ec6e                	sd	s11,24(sp)
    800005d0:	0100                	addi	s0,sp,128
    800005d2:	8a2a                	mv	s4,a0
    800005d4:	e40c                	sd	a1,8(s0)
    800005d6:	e810                	sd	a2,16(s0)
    800005d8:	ec14                	sd	a3,24(s0)
    800005da:	f018                	sd	a4,32(s0)
    800005dc:	f41c                	sd	a5,40(s0)
    800005de:	03043823          	sd	a6,48(s0)
    800005e2:	03143c23          	sd	a7,56(s0)
  locking = pr.locking;
    800005e6:	00012d97          	auipc	s11,0x12
    800005ea:	2eadad83          	lw	s11,746(s11) # 800128d0 <pr+0x20>
  if(locking)
    800005ee:	020d9b63          	bnez	s11,80000624 <printf+0x70>
  if (fmt == 0)
    800005f2:	040a0263          	beqz	s4,80000636 <printf+0x82>
  va_start(ap, fmt);
    800005f6:	00840793          	addi	a5,s0,8
    800005fa:	f8f43423          	sd	a5,-120(s0)
  for(i = 0; (c = fmt[i] & 0xff) != 0; i++){
    800005fe:	000a4503          	lbu	a0,0(s4)
    80000602:	16050263          	beqz	a0,80000766 <printf+0x1b2>
    80000606:	4481                	li	s1,0
    if(c != '%'){
    80000608:	02500a93          	li	s5,37
    switch(c){
    8000060c:	07000b13          	li	s6,112
  consputc('x');
    80000610:	4d41                	li	s10,16
    consputc(digits[x >> (sizeof(uint64) * 8 - 4)]);
    80000612:	00008b97          	auipc	s7,0x8
    80000616:	6feb8b93          	addi	s7,s7,1790 # 80008d10 <digits>
    switch(c){
    8000061a:	07300c93          	li	s9,115
    8000061e:	06400c13          	li	s8,100
    80000622:	a82d                	j	8000065c <printf+0xa8>
    acquire(&pr.lock);
    80000624:	00012517          	auipc	a0,0x12
    80000628:	28c50513          	addi	a0,a0,652 # 800128b0 <pr>
    8000062c:	00000097          	auipc	ra,0x0
    80000630:	484080e7          	jalr	1156(ra) # 80000ab0 <acquire>
    80000634:	bf7d                	j	800005f2 <printf+0x3e>
    panic("null fmt");
    80000636:	00008517          	auipc	a0,0x8
    8000063a:	bca50513          	addi	a0,a0,-1078 # 80008200 <userret+0x170>
    8000063e:	00000097          	auipc	ra,0x0
    80000642:	f1c080e7          	jalr	-228(ra) # 8000055a <panic>
      consputc(c);
    80000646:	00000097          	auipc	ra,0x0
    8000064a:	bbe080e7          	jalr	-1090(ra) # 80000204 <consputc>
  for(i = 0; (c = fmt[i] & 0xff) != 0; i++){
    8000064e:	2485                	addiw	s1,s1,1
    80000650:	009a07b3          	add	a5,s4,s1
    80000654:	0007c503          	lbu	a0,0(a5)
    80000658:	10050763          	beqz	a0,80000766 <printf+0x1b2>
    if(c != '%'){
    8000065c:	ff5515e3          	bne	a0,s5,80000646 <printf+0x92>
    c = fmt[++i] & 0xff;
    80000660:	2485                	addiw	s1,s1,1
    80000662:	009a07b3          	add	a5,s4,s1
    80000666:	0007c783          	lbu	a5,0(a5)
    8000066a:	0007891b          	sext.w	s2,a5
    if(c == 0)
    8000066e:	cfe5                	beqz	a5,80000766 <printf+0x1b2>
    switch(c){
    80000670:	05678a63          	beq	a5,s6,800006c4 <printf+0x110>
    80000674:	02fb7663          	bgeu	s6,a5,800006a0 <printf+0xec>
    80000678:	09978963          	beq	a5,s9,8000070a <printf+0x156>
    8000067c:	07800713          	li	a4,120
    80000680:	0ce79863          	bne	a5,a4,80000750 <printf+0x19c>
      printint(va_arg(ap, int), 16, 1);
    80000684:	f8843783          	ld	a5,-120(s0)
    80000688:	00878713          	addi	a4,a5,8
    8000068c:	f8e43423          	sd	a4,-120(s0)
    80000690:	4605                	li	a2,1
    80000692:	85ea                	mv	a1,s10
    80000694:	4388                	lw	a0,0(a5)
    80000696:	00000097          	auipc	ra,0x0
    8000069a:	e22080e7          	jalr	-478(ra) # 800004b8 <printint>
      break;
    8000069e:	bf45                	j	8000064e <printf+0x9a>
    switch(c){
    800006a0:	0b578263          	beq	a5,s5,80000744 <printf+0x190>
    800006a4:	0b879663          	bne	a5,s8,80000750 <printf+0x19c>
      printint(va_arg(ap, int), 10, 1);
    800006a8:	f8843783          	ld	a5,-120(s0)
    800006ac:	00878713          	addi	a4,a5,8
    800006b0:	f8e43423          	sd	a4,-120(s0)
    800006b4:	4605                	li	a2,1
    800006b6:	45a9                	li	a1,10
    800006b8:	4388                	lw	a0,0(a5)
    800006ba:	00000097          	auipc	ra,0x0
    800006be:	dfe080e7          	jalr	-514(ra) # 800004b8 <printint>
      break;
    800006c2:	b771                	j	8000064e <printf+0x9a>
      printptr(va_arg(ap, uint64));
    800006c4:	f8843783          	ld	a5,-120(s0)
    800006c8:	00878713          	addi	a4,a5,8
    800006cc:	f8e43423          	sd	a4,-120(s0)
    800006d0:	0007b983          	ld	s3,0(a5)
  consputc('0');
    800006d4:	03000513          	li	a0,48
    800006d8:	00000097          	auipc	ra,0x0
    800006dc:	b2c080e7          	jalr	-1236(ra) # 80000204 <consputc>
  consputc('x');
    800006e0:	07800513          	li	a0,120
    800006e4:	00000097          	auipc	ra,0x0
    800006e8:	b20080e7          	jalr	-1248(ra) # 80000204 <consputc>
    800006ec:	896a                	mv	s2,s10
    consputc(digits[x >> (sizeof(uint64) * 8 - 4)]);
    800006ee:	03c9d793          	srli	a5,s3,0x3c
    800006f2:	97de                	add	a5,a5,s7
    800006f4:	0007c503          	lbu	a0,0(a5)
    800006f8:	00000097          	auipc	ra,0x0
    800006fc:	b0c080e7          	jalr	-1268(ra) # 80000204 <consputc>
  for (i = 0; i < (sizeof(uint64) * 2); i++, x <<= 4)
    80000700:	0992                	slli	s3,s3,0x4
    80000702:	397d                	addiw	s2,s2,-1
    80000704:	fe0915e3          	bnez	s2,800006ee <printf+0x13a>
    80000708:	b799                	j	8000064e <printf+0x9a>
      if((s = va_arg(ap, char*)) == 0)
    8000070a:	f8843783          	ld	a5,-120(s0)
    8000070e:	00878713          	addi	a4,a5,8
    80000712:	f8e43423          	sd	a4,-120(s0)
    80000716:	0007b903          	ld	s2,0(a5)
    8000071a:	00090e63          	beqz	s2,80000736 <printf+0x182>
      for(; *s; s++)
    8000071e:	00094503          	lbu	a0,0(s2)
    80000722:	d515                	beqz	a0,8000064e <printf+0x9a>
        consputc(*s);
    80000724:	00000097          	auipc	ra,0x0
    80000728:	ae0080e7          	jalr	-1312(ra) # 80000204 <consputc>
      for(; *s; s++)
    8000072c:	0905                	addi	s2,s2,1
    8000072e:	00094503          	lbu	a0,0(s2)
    80000732:	f96d                	bnez	a0,80000724 <printf+0x170>
    80000734:	bf29                	j	8000064e <printf+0x9a>
        s = "(null)";
    80000736:	00008917          	auipc	s2,0x8
    8000073a:	ac290913          	addi	s2,s2,-1342 # 800081f8 <userret+0x168>
      for(; *s; s++)
    8000073e:	02800513          	li	a0,40
    80000742:	b7cd                	j	80000724 <printf+0x170>
      consputc('%');
    80000744:	8556                	mv	a0,s5
    80000746:	00000097          	auipc	ra,0x0
    8000074a:	abe080e7          	jalr	-1346(ra) # 80000204 <consputc>
      break;
    8000074e:	b701                	j	8000064e <printf+0x9a>
      consputc('%');
    80000750:	8556                	mv	a0,s5
    80000752:	00000097          	auipc	ra,0x0
    80000756:	ab2080e7          	jalr	-1358(ra) # 80000204 <consputc>
      consputc(c);
    8000075a:	854a                	mv	a0,s2
    8000075c:	00000097          	auipc	ra,0x0
    80000760:	aa8080e7          	jalr	-1368(ra) # 80000204 <consputc>
      break;
    80000764:	b5ed                	j	8000064e <printf+0x9a>
  if(locking)
    80000766:	020d9163          	bnez	s11,80000788 <printf+0x1d4>
}
    8000076a:	70e6                	ld	ra,120(sp)
    8000076c:	7446                	ld	s0,112(sp)
    8000076e:	74a6                	ld	s1,104(sp)
    80000770:	7906                	ld	s2,96(sp)
    80000772:	69e6                	ld	s3,88(sp)
    80000774:	6a46                	ld	s4,80(sp)
    80000776:	6aa6                	ld	s5,72(sp)
    80000778:	6b06                	ld	s6,64(sp)
    8000077a:	7be2                	ld	s7,56(sp)
    8000077c:	7c42                	ld	s8,48(sp)
    8000077e:	7ca2                	ld	s9,40(sp)
    80000780:	7d02                	ld	s10,32(sp)
    80000782:	6de2                	ld	s11,24(sp)
    80000784:	6129                	addi	sp,sp,192
    80000786:	8082                	ret
    release(&pr.lock);
    80000788:	00012517          	auipc	a0,0x12
    8000078c:	12850513          	addi	a0,a0,296 # 800128b0 <pr>
    80000790:	00000097          	auipc	ra,0x0
    80000794:	3f0080e7          	jalr	1008(ra) # 80000b80 <release>
}
    80000798:	bfc9                	j	8000076a <printf+0x1b6>

000000008000079a <printfinit>:
    ;
}

void
printfinit(void)
{
    8000079a:	1101                	addi	sp,sp,-32
    8000079c:	ec06                	sd	ra,24(sp)
    8000079e:	e822                	sd	s0,16(sp)
    800007a0:	e426                	sd	s1,8(sp)
    800007a2:	1000                	addi	s0,sp,32
  initlock(&pr.lock, "pr");
    800007a4:	00012497          	auipc	s1,0x12
    800007a8:	10c48493          	addi	s1,s1,268 # 800128b0 <pr>
    800007ac:	00008597          	auipc	a1,0x8
    800007b0:	a6458593          	addi	a1,a1,-1436 # 80008210 <userret+0x180>
    800007b4:	8526                	mv	a0,s1
    800007b6:	00000097          	auipc	ra,0x0
    800007ba:	226080e7          	jalr	550(ra) # 800009dc <initlock>
  pr.locking = 1;
    800007be:	4785                	li	a5,1
    800007c0:	d09c                	sw	a5,32(s1)
}
    800007c2:	60e2                	ld	ra,24(sp)
    800007c4:	6442                	ld	s0,16(sp)
    800007c6:	64a2                	ld	s1,8(sp)
    800007c8:	6105                	addi	sp,sp,32
    800007ca:	8082                	ret

00000000800007cc <uartinit>:
#define ReadReg(reg) (*(Reg(reg)))
#define WriteReg(reg, v) (*(Reg(reg)) = (v))

void
uartinit(void)
{
    800007cc:	1141                	addi	sp,sp,-16
    800007ce:	e422                	sd	s0,8(sp)
    800007d0:	0800                	addi	s0,sp,16
  // disable interrupts.
  WriteReg(IER, 0x00);
    800007d2:	100007b7          	lui	a5,0x10000
    800007d6:	000780a3          	sb	zero,1(a5) # 10000001 <_entry-0x6fffffff>

  // special mode to set baud rate.
  WriteReg(LCR, 0x80);
    800007da:	f8000713          	li	a4,-128
    800007de:	00e781a3          	sb	a4,3(a5)

  // LSB for baud rate of 38.4K.
  WriteReg(0, 0x03);
    800007e2:	470d                	li	a4,3
    800007e4:	00e78023          	sb	a4,0(a5)

  // MSB for baud rate of 38.4K.
  WriteReg(1, 0x00);
    800007e8:	000780a3          	sb	zero,1(a5)

  // leave set-baud mode,
  // and set word length to 8 bits, no parity.
  WriteReg(LCR, 0x03);
    800007ec:	00e781a3          	sb	a4,3(a5)

  // reset and enable FIFOs.
  WriteReg(FCR, 0x07);
    800007f0:	471d                	li	a4,7
    800007f2:	00e78123          	sb	a4,2(a5)

  // enable receive interrupts.
  WriteReg(IER, 0x01);
    800007f6:	4705                	li	a4,1
    800007f8:	00e780a3          	sb	a4,1(a5)
}
    800007fc:	6422                	ld	s0,8(sp)
    800007fe:	0141                	addi	sp,sp,16
    80000800:	8082                	ret

0000000080000802 <uartputc>:

// write one output character to the UART.
void
uartputc(int c)
{
    80000802:	1141                	addi	sp,sp,-16
    80000804:	e422                	sd	s0,8(sp)
    80000806:	0800                	addi	s0,sp,16
  // wait for Transmit Holding Empty to be set in LSR.
  while((ReadReg(LSR) & (1 << 5)) == 0)
    80000808:	10000737          	lui	a4,0x10000
    8000080c:	00574783          	lbu	a5,5(a4) # 10000005 <_entry-0x6ffffffb>
    80000810:	0ff7f793          	andi	a5,a5,255
    80000814:	0207f793          	andi	a5,a5,32
    80000818:	dbf5                	beqz	a5,8000080c <uartputc+0xa>
    ;
  WriteReg(THR, c);
    8000081a:	0ff57513          	andi	a0,a0,255
    8000081e:	100007b7          	lui	a5,0x10000
    80000822:	00a78023          	sb	a0,0(a5) # 10000000 <_entry-0x70000000>
}
    80000826:	6422                	ld	s0,8(sp)
    80000828:	0141                	addi	sp,sp,16
    8000082a:	8082                	ret

000000008000082c <uartgetc>:

// read one input character from the UART.
// return -1 if none is waiting.
int
uartgetc(void)
{
    8000082c:	1141                	addi	sp,sp,-16
    8000082e:	e422                	sd	s0,8(sp)
    80000830:	0800                	addi	s0,sp,16
  if(ReadReg(LSR) & 0x01){
    80000832:	100007b7          	lui	a5,0x10000
    80000836:	0057c783          	lbu	a5,5(a5) # 10000005 <_entry-0x6ffffffb>
    8000083a:	8b85                	andi	a5,a5,1
    8000083c:	cb91                	beqz	a5,80000850 <uartgetc+0x24>
    // input data is ready.
    return ReadReg(RHR);
    8000083e:	100007b7          	lui	a5,0x10000
    80000842:	0007c503          	lbu	a0,0(a5) # 10000000 <_entry-0x70000000>
    80000846:	0ff57513          	andi	a0,a0,255
  } else {
    return -1;
  }
}
    8000084a:	6422                	ld	s0,8(sp)
    8000084c:	0141                	addi	sp,sp,16
    8000084e:	8082                	ret
    return -1;
    80000850:	557d                	li	a0,-1
    80000852:	bfe5                	j	8000084a <uartgetc+0x1e>

0000000080000854 <uartintr>:

// trap.c calls here when the uart interrupts.
void
uartintr(void)
{
    80000854:	1101                	addi	sp,sp,-32
    80000856:	ec06                	sd	ra,24(sp)
    80000858:	e822                	sd	s0,16(sp)
    8000085a:	e426                	sd	s1,8(sp)
    8000085c:	1000                	addi	s0,sp,32
  while(1){
    int c = uartgetc();
    if(c == -1)
    8000085e:	54fd                	li	s1,-1
    int c = uartgetc();
    80000860:	00000097          	auipc	ra,0x0
    80000864:	fcc080e7          	jalr	-52(ra) # 8000082c <uartgetc>
    if(c == -1)
    80000868:	00950763          	beq	a0,s1,80000876 <uartintr+0x22>
      break;
    consoleintr(c);
    8000086c:	00000097          	auipc	ra,0x0
    80000870:	a6e080e7          	jalr	-1426(ra) # 800002da <consoleintr>
  while(1){
    80000874:	b7f5                	j	80000860 <uartintr+0xc>
  }
}
    80000876:	60e2                	ld	ra,24(sp)
    80000878:	6442                	ld	s0,16(sp)
    8000087a:	64a2                	ld	s1,8(sp)
    8000087c:	6105                	addi	sp,sp,32
    8000087e:	8082                	ret

0000000080000880 <kfree>:
// which normally should have been returned by a
// call to kalloc().  (The exception is when
// initializing the allocator; see kinit above.)
void
kfree(void *pa)
{
    80000880:	1101                	addi	sp,sp,-32
    80000882:	ec06                	sd	ra,24(sp)
    80000884:	e822                	sd	s0,16(sp)
    80000886:	e426                	sd	s1,8(sp)
    80000888:	e04a                	sd	s2,0(sp)
    8000088a:	1000                	addi	s0,sp,32
  struct run *r;

  if(((uint64)pa % PGSIZE) != 0 || (char*)pa < end || (uint64)pa >= PHYSTOP)
    8000088c:	03451793          	slli	a5,a0,0x34
    80000890:	ebb9                	bnez	a5,800008e6 <kfree+0x66>
    80000892:	84aa                	mv	s1,a0
    80000894:	00027797          	auipc	a5,0x27
    80000898:	7c878793          	addi	a5,a5,1992 # 8002805c <end>
    8000089c:	04f56563          	bltu	a0,a5,800008e6 <kfree+0x66>
    800008a0:	47c5                	li	a5,17
    800008a2:	07ee                	slli	a5,a5,0x1b
    800008a4:	04f57163          	bgeu	a0,a5,800008e6 <kfree+0x66>
    panic("kfree");

  // Fill with junk to catch dangling refs.
  memset(pa, 1, PGSIZE);
    800008a8:	6605                	lui	a2,0x1
    800008aa:	4585                	li	a1,1
    800008ac:	00000097          	auipc	ra,0x0
    800008b0:	4d2080e7          	jalr	1234(ra) # 80000d7e <memset>

  r = (struct run*)pa;

  acquire(&kmem.lock);
    800008b4:	00012917          	auipc	s2,0x12
    800008b8:	02490913          	addi	s2,s2,36 # 800128d8 <kmem>
    800008bc:	854a                	mv	a0,s2
    800008be:	00000097          	auipc	ra,0x0
    800008c2:	1f2080e7          	jalr	498(ra) # 80000ab0 <acquire>
  r->next = kmem.freelist;
    800008c6:	02093783          	ld	a5,32(s2)
    800008ca:	e09c                	sd	a5,0(s1)
  kmem.freelist = r;
    800008cc:	02993023          	sd	s1,32(s2)
  release(&kmem.lock);
    800008d0:	854a                	mv	a0,s2
    800008d2:	00000097          	auipc	ra,0x0
    800008d6:	2ae080e7          	jalr	686(ra) # 80000b80 <release>
}
    800008da:	60e2                	ld	ra,24(sp)
    800008dc:	6442                	ld	s0,16(sp)
    800008de:	64a2                	ld	s1,8(sp)
    800008e0:	6902                	ld	s2,0(sp)
    800008e2:	6105                	addi	sp,sp,32
    800008e4:	8082                	ret
    panic("kfree");
    800008e6:	00008517          	auipc	a0,0x8
    800008ea:	93250513          	addi	a0,a0,-1742 # 80008218 <userret+0x188>
    800008ee:	00000097          	auipc	ra,0x0
    800008f2:	c6c080e7          	jalr	-916(ra) # 8000055a <panic>

00000000800008f6 <freerange>:
{
    800008f6:	7179                	addi	sp,sp,-48
    800008f8:	f406                	sd	ra,40(sp)
    800008fa:	f022                	sd	s0,32(sp)
    800008fc:	ec26                	sd	s1,24(sp)
    800008fe:	e84a                	sd	s2,16(sp)
    80000900:	e44e                	sd	s3,8(sp)
    80000902:	e052                	sd	s4,0(sp)
    80000904:	1800                	addi	s0,sp,48
  p = (char*)PGROUNDUP((uint64)pa_start);
    80000906:	6785                	lui	a5,0x1
    80000908:	fff78493          	addi	s1,a5,-1 # fff <_entry-0x7ffff001>
    8000090c:	94aa                	add	s1,s1,a0
    8000090e:	757d                	lui	a0,0xfffff
    80000910:	8ce9                	and	s1,s1,a0
  for(; p + PGSIZE <= (char*)pa_end; p += PGSIZE)
    80000912:	94be                	add	s1,s1,a5
    80000914:	0095ee63          	bltu	a1,s1,80000930 <freerange+0x3a>
    80000918:	892e                	mv	s2,a1
    kfree(p);
    8000091a:	7a7d                	lui	s4,0xfffff
  for(; p + PGSIZE <= (char*)pa_end; p += PGSIZE)
    8000091c:	6985                	lui	s3,0x1
    kfree(p);
    8000091e:	01448533          	add	a0,s1,s4
    80000922:	00000097          	auipc	ra,0x0
    80000926:	f5e080e7          	jalr	-162(ra) # 80000880 <kfree>
  for(; p + PGSIZE <= (char*)pa_end; p += PGSIZE)
    8000092a:	94ce                	add	s1,s1,s3
    8000092c:	fe9979e3          	bgeu	s2,s1,8000091e <freerange+0x28>
}
    80000930:	70a2                	ld	ra,40(sp)
    80000932:	7402                	ld	s0,32(sp)
    80000934:	64e2                	ld	s1,24(sp)
    80000936:	6942                	ld	s2,16(sp)
    80000938:	69a2                	ld	s3,8(sp)
    8000093a:	6a02                	ld	s4,0(sp)
    8000093c:	6145                	addi	sp,sp,48
    8000093e:	8082                	ret

0000000080000940 <kinit>:
{
    80000940:	1141                	addi	sp,sp,-16
    80000942:	e406                	sd	ra,8(sp)
    80000944:	e022                	sd	s0,0(sp)
    80000946:	0800                	addi	s0,sp,16
  initlock(&kmem.lock, "kmem");
    80000948:	00008597          	auipc	a1,0x8
    8000094c:	8d858593          	addi	a1,a1,-1832 # 80008220 <userret+0x190>
    80000950:	00012517          	auipc	a0,0x12
    80000954:	f8850513          	addi	a0,a0,-120 # 800128d8 <kmem>
    80000958:	00000097          	auipc	ra,0x0
    8000095c:	084080e7          	jalr	132(ra) # 800009dc <initlock>
  freerange(end, (void*)PHYSTOP);
    80000960:	45c5                	li	a1,17
    80000962:	05ee                	slli	a1,a1,0x1b
    80000964:	00027517          	auipc	a0,0x27
    80000968:	6f850513          	addi	a0,a0,1784 # 8002805c <end>
    8000096c:	00000097          	auipc	ra,0x0
    80000970:	f8a080e7          	jalr	-118(ra) # 800008f6 <freerange>
}
    80000974:	60a2                	ld	ra,8(sp)
    80000976:	6402                	ld	s0,0(sp)
    80000978:	0141                	addi	sp,sp,16
    8000097a:	8082                	ret

000000008000097c <kalloc>:
// Allocate one 4096-byte page of physical memory.
// Returns a pointer that the kernel can use.
// Returns 0 if the memory cannot be allocated.
void *
kalloc(void)
{
    8000097c:	1101                	addi	sp,sp,-32
    8000097e:	ec06                	sd	ra,24(sp)
    80000980:	e822                	sd	s0,16(sp)
    80000982:	e426                	sd	s1,8(sp)
    80000984:	1000                	addi	s0,sp,32
  struct run *r;

  acquire(&kmem.lock);
    80000986:	00012497          	auipc	s1,0x12
    8000098a:	f5248493          	addi	s1,s1,-174 # 800128d8 <kmem>
    8000098e:	8526                	mv	a0,s1
    80000990:	00000097          	auipc	ra,0x0
    80000994:	120080e7          	jalr	288(ra) # 80000ab0 <acquire>
  r = kmem.freelist;
    80000998:	7084                	ld	s1,32(s1)
  if(r)
    8000099a:	c885                	beqz	s1,800009ca <kalloc+0x4e>
    kmem.freelist = r->next;
    8000099c:	609c                	ld	a5,0(s1)
    8000099e:	00012517          	auipc	a0,0x12
    800009a2:	f3a50513          	addi	a0,a0,-198 # 800128d8 <kmem>
    800009a6:	f11c                	sd	a5,32(a0)
  release(&kmem.lock);
    800009a8:	00000097          	auipc	ra,0x0
    800009ac:	1d8080e7          	jalr	472(ra) # 80000b80 <release>

  if(r)
    memset((char*)r, 5, PGSIZE); // fill with junk
    800009b0:	6605                	lui	a2,0x1
    800009b2:	4595                	li	a1,5
    800009b4:	8526                	mv	a0,s1
    800009b6:	00000097          	auipc	ra,0x0
    800009ba:	3c8080e7          	jalr	968(ra) # 80000d7e <memset>
  return (void*)r;
}
    800009be:	8526                	mv	a0,s1
    800009c0:	60e2                	ld	ra,24(sp)
    800009c2:	6442                	ld	s0,16(sp)
    800009c4:	64a2                	ld	s1,8(sp)
    800009c6:	6105                	addi	sp,sp,32
    800009c8:	8082                	ret
  release(&kmem.lock);
    800009ca:	00012517          	auipc	a0,0x12
    800009ce:	f0e50513          	addi	a0,a0,-242 # 800128d8 <kmem>
    800009d2:	00000097          	auipc	ra,0x0
    800009d6:	1ae080e7          	jalr	430(ra) # 80000b80 <release>
  if(r)
    800009da:	b7d5                	j	800009be <kalloc+0x42>

00000000800009dc <initlock>:

// assumes locks are not freed
void
initlock(struct spinlock *lk, char *name)
{
  lk->name = name;
    800009dc:	e50c                	sd	a1,8(a0)
  lk->locked = 0;
    800009de:	00052023          	sw	zero,0(a0)
  lk->cpu = 0;
    800009e2:	00053823          	sd	zero,16(a0)
  lk->nts = 0;
    800009e6:	00052e23          	sw	zero,28(a0)
  lk->n = 0;
    800009ea:	00052c23          	sw	zero,24(a0)
  if(nlock >= NLOCK)
    800009ee:	00027797          	auipc	a5,0x27
    800009f2:	6367a783          	lw	a5,1590(a5) # 80028024 <nlock>
    800009f6:	3e700713          	li	a4,999
    800009fa:	02f74063          	blt	a4,a5,80000a1a <initlock+0x3e>
    panic("initlock");
  locks[nlock] = lk;
    800009fe:	00379693          	slli	a3,a5,0x3
    80000a02:	00012717          	auipc	a4,0x12
    80000a06:	efe70713          	addi	a4,a4,-258 # 80012900 <locks>
    80000a0a:	9736                	add	a4,a4,a3
    80000a0c:	e308                	sd	a0,0(a4)
  nlock++;
    80000a0e:	2785                	addiw	a5,a5,1
    80000a10:	00027717          	auipc	a4,0x27
    80000a14:	60f72a23          	sw	a5,1556(a4) # 80028024 <nlock>
    80000a18:	8082                	ret
{
    80000a1a:	1141                	addi	sp,sp,-16
    80000a1c:	e406                	sd	ra,8(sp)
    80000a1e:	e022                	sd	s0,0(sp)
    80000a20:	0800                	addi	s0,sp,16
    panic("initlock");
    80000a22:	00008517          	auipc	a0,0x8
    80000a26:	80650513          	addi	a0,a0,-2042 # 80008228 <userret+0x198>
    80000a2a:	00000097          	auipc	ra,0x0
    80000a2e:	b30080e7          	jalr	-1232(ra) # 8000055a <panic>

0000000080000a32 <holding>:
// Must be called with interrupts off.
int
holding(struct spinlock *lk)
{
  int r;
  r = (lk->locked && lk->cpu == mycpu());
    80000a32:	411c                	lw	a5,0(a0)
    80000a34:	e399                	bnez	a5,80000a3a <holding+0x8>
    80000a36:	4501                	li	a0,0
  return r;
}
    80000a38:	8082                	ret
{
    80000a3a:	1101                	addi	sp,sp,-32
    80000a3c:	ec06                	sd	ra,24(sp)
    80000a3e:	e822                	sd	s0,16(sp)
    80000a40:	e426                	sd	s1,8(sp)
    80000a42:	1000                	addi	s0,sp,32
  r = (lk->locked && lk->cpu == mycpu());
    80000a44:	6904                	ld	s1,16(a0)
    80000a46:	00001097          	auipc	ra,0x1
    80000a4a:	008080e7          	jalr	8(ra) # 80001a4e <mycpu>
    80000a4e:	40a48533          	sub	a0,s1,a0
    80000a52:	00153513          	seqz	a0,a0
}
    80000a56:	60e2                	ld	ra,24(sp)
    80000a58:	6442                	ld	s0,16(sp)
    80000a5a:	64a2                	ld	s1,8(sp)
    80000a5c:	6105                	addi	sp,sp,32
    80000a5e:	8082                	ret

0000000080000a60 <push_off>:
// it takes two pop_off()s to undo two push_off()s.  Also, if interrupts
// are initially off, then push_off, pop_off leaves them off.

void
push_off(void)
{
    80000a60:	1101                	addi	sp,sp,-32
    80000a62:	ec06                	sd	ra,24(sp)
    80000a64:	e822                	sd	s0,16(sp)
    80000a66:	e426                	sd	s1,8(sp)
    80000a68:	1000                	addi	s0,sp,32
  asm volatile("csrr %0, sstatus" : "=r" (x) );
    80000a6a:	100024f3          	csrr	s1,sstatus
  return (x & SSTATUS_SIE) != 0;
    80000a6e:	8889                	andi	s1,s1,2
  int old = intr_get();
  if(old)
    80000a70:	c491                	beqz	s1,80000a7c <push_off+0x1c>
  asm volatile("csrr %0, sstatus" : "=r" (x) );
    80000a72:	100027f3          	csrr	a5,sstatus
  w_sstatus(r_sstatus() & ~SSTATUS_SIE);
    80000a76:	9bf5                	andi	a5,a5,-3
  asm volatile("csrw sstatus, %0" : : "r" (x));
    80000a78:	10079073          	csrw	sstatus,a5
    intr_off();
  if(mycpu()->noff == 0)
    80000a7c:	00001097          	auipc	ra,0x1
    80000a80:	fd2080e7          	jalr	-46(ra) # 80001a4e <mycpu>
    80000a84:	5d3c                	lw	a5,120(a0)
    80000a86:	cf89                	beqz	a5,80000aa0 <push_off+0x40>
    mycpu()->intena = old;
  mycpu()->noff += 1;
    80000a88:	00001097          	auipc	ra,0x1
    80000a8c:	fc6080e7          	jalr	-58(ra) # 80001a4e <mycpu>
    80000a90:	5d3c                	lw	a5,120(a0)
    80000a92:	2785                	addiw	a5,a5,1
    80000a94:	dd3c                	sw	a5,120(a0)
}
    80000a96:	60e2                	ld	ra,24(sp)
    80000a98:	6442                	ld	s0,16(sp)
    80000a9a:	64a2                	ld	s1,8(sp)
    80000a9c:	6105                	addi	sp,sp,32
    80000a9e:	8082                	ret
    mycpu()->intena = old;
    80000aa0:	00001097          	auipc	ra,0x1
    80000aa4:	fae080e7          	jalr	-82(ra) # 80001a4e <mycpu>
  return (x & SSTATUS_SIE) != 0;
    80000aa8:	009034b3          	snez	s1,s1
    80000aac:	dd64                	sw	s1,124(a0)
    80000aae:	bfe9                	j	80000a88 <push_off+0x28>

0000000080000ab0 <acquire>:
{
    80000ab0:	1101                	addi	sp,sp,-32
    80000ab2:	ec06                	sd	ra,24(sp)
    80000ab4:	e822                	sd	s0,16(sp)
    80000ab6:	e426                	sd	s1,8(sp)
    80000ab8:	1000                	addi	s0,sp,32
    80000aba:	84aa                	mv	s1,a0
  push_off(); // disable interrupts to avoid deadlock.
    80000abc:	00000097          	auipc	ra,0x0
    80000ac0:	fa4080e7          	jalr	-92(ra) # 80000a60 <push_off>
  if(holding(lk))
    80000ac4:	8526                	mv	a0,s1
    80000ac6:	00000097          	auipc	ra,0x0
    80000aca:	f6c080e7          	jalr	-148(ra) # 80000a32 <holding>
    80000ace:	e911                	bnez	a0,80000ae2 <acquire+0x32>
  __sync_fetch_and_add(&(lk->n), 1);
    80000ad0:	4785                	li	a5,1
    80000ad2:	01848713          	addi	a4,s1,24
    80000ad6:	0f50000f          	fence	iorw,ow
    80000ada:	04f7202f          	amoadd.w.aq	zero,a5,(a4)
  while(__sync_lock_test_and_set(&lk->locked, 1) != 0) {
    80000ade:	4705                	li	a4,1
    80000ae0:	a839                	j	80000afe <acquire+0x4e>
    panic("acquire");
    80000ae2:	00007517          	auipc	a0,0x7
    80000ae6:	75650513          	addi	a0,a0,1878 # 80008238 <userret+0x1a8>
    80000aea:	00000097          	auipc	ra,0x0
    80000aee:	a70080e7          	jalr	-1424(ra) # 8000055a <panic>
     __sync_fetch_and_add(&lk->nts, 1);
    80000af2:	01c48793          	addi	a5,s1,28
    80000af6:	0f50000f          	fence	iorw,ow
    80000afa:	04e7a02f          	amoadd.w.aq	zero,a4,(a5)
  while(__sync_lock_test_and_set(&lk->locked, 1) != 0) {
    80000afe:	87ba                	mv	a5,a4
    80000b00:	0cf4a7af          	amoswap.w.aq	a5,a5,(s1)
    80000b04:	2781                	sext.w	a5,a5
    80000b06:	f7f5                	bnez	a5,80000af2 <acquire+0x42>
  __sync_synchronize();
    80000b08:	0ff0000f          	fence
  lk->cpu = mycpu();
    80000b0c:	00001097          	auipc	ra,0x1
    80000b10:	f42080e7          	jalr	-190(ra) # 80001a4e <mycpu>
    80000b14:	e888                	sd	a0,16(s1)
}
    80000b16:	60e2                	ld	ra,24(sp)
    80000b18:	6442                	ld	s0,16(sp)
    80000b1a:	64a2                	ld	s1,8(sp)
    80000b1c:	6105                	addi	sp,sp,32
    80000b1e:	8082                	ret

0000000080000b20 <pop_off>:

void
pop_off(void)
{
    80000b20:	1141                	addi	sp,sp,-16
    80000b22:	e406                	sd	ra,8(sp)
    80000b24:	e022                	sd	s0,0(sp)
    80000b26:	0800                	addi	s0,sp,16
  asm volatile("csrr %0, sstatus" : "=r" (x) );
    80000b28:	100027f3          	csrr	a5,sstatus
  return (x & SSTATUS_SIE) != 0;
    80000b2c:	8b89                	andi	a5,a5,2
  if(intr_get())
    80000b2e:	eb8d                	bnez	a5,80000b60 <pop_off+0x40>
    panic("pop_off - interruptible");
  struct cpu *c = mycpu();
    80000b30:	00001097          	auipc	ra,0x1
    80000b34:	f1e080e7          	jalr	-226(ra) # 80001a4e <mycpu>
  if(c->noff < 1)
    80000b38:	5d3c                	lw	a5,120(a0)
    80000b3a:	02f05b63          	blez	a5,80000b70 <pop_off+0x50>
    panic("pop_off");
  c->noff -= 1;
    80000b3e:	37fd                	addiw	a5,a5,-1
    80000b40:	0007871b          	sext.w	a4,a5
    80000b44:	dd3c                	sw	a5,120(a0)
  if(c->noff == 0 && c->intena)
    80000b46:	eb09                	bnez	a4,80000b58 <pop_off+0x38>
    80000b48:	5d7c                	lw	a5,124(a0)
    80000b4a:	c799                	beqz	a5,80000b58 <pop_off+0x38>
  asm volatile("csrr %0, sstatus" : "=r" (x) );
    80000b4c:	100027f3          	csrr	a5,sstatus
  w_sstatus(r_sstatus() | SSTATUS_SIE);
    80000b50:	0027e793          	ori	a5,a5,2
  asm volatile("csrw sstatus, %0" : : "r" (x));
    80000b54:	10079073          	csrw	sstatus,a5
    intr_on();
}
    80000b58:	60a2                	ld	ra,8(sp)
    80000b5a:	6402                	ld	s0,0(sp)
    80000b5c:	0141                	addi	sp,sp,16
    80000b5e:	8082                	ret
    panic("pop_off - interruptible");
    80000b60:	00007517          	auipc	a0,0x7
    80000b64:	6e050513          	addi	a0,a0,1760 # 80008240 <userret+0x1b0>
    80000b68:	00000097          	auipc	ra,0x0
    80000b6c:	9f2080e7          	jalr	-1550(ra) # 8000055a <panic>
    panic("pop_off");
    80000b70:	00007517          	auipc	a0,0x7
    80000b74:	6e850513          	addi	a0,a0,1768 # 80008258 <userret+0x1c8>
    80000b78:	00000097          	auipc	ra,0x0
    80000b7c:	9e2080e7          	jalr	-1566(ra) # 8000055a <panic>

0000000080000b80 <release>:
{
    80000b80:	1101                	addi	sp,sp,-32
    80000b82:	ec06                	sd	ra,24(sp)
    80000b84:	e822                	sd	s0,16(sp)
    80000b86:	e426                	sd	s1,8(sp)
    80000b88:	1000                	addi	s0,sp,32
    80000b8a:	84aa                	mv	s1,a0
  if(!holding(lk))
    80000b8c:	00000097          	auipc	ra,0x0
    80000b90:	ea6080e7          	jalr	-346(ra) # 80000a32 <holding>
    80000b94:	c115                	beqz	a0,80000bb8 <release+0x38>
  lk->cpu = 0;
    80000b96:	0004b823          	sd	zero,16(s1)
  __sync_synchronize();
    80000b9a:	0ff0000f          	fence
  __sync_lock_release(&lk->locked);
    80000b9e:	0f50000f          	fence	iorw,ow
    80000ba2:	0804a02f          	amoswap.w	zero,zero,(s1)
  pop_off();
    80000ba6:	00000097          	auipc	ra,0x0
    80000baa:	f7a080e7          	jalr	-134(ra) # 80000b20 <pop_off>
}
    80000bae:	60e2                	ld	ra,24(sp)
    80000bb0:	6442                	ld	s0,16(sp)
    80000bb2:	64a2                	ld	s1,8(sp)
    80000bb4:	6105                	addi	sp,sp,32
    80000bb6:	8082                	ret
    panic("release");
    80000bb8:	00007517          	auipc	a0,0x7
    80000bbc:	6a850513          	addi	a0,a0,1704 # 80008260 <userret+0x1d0>
    80000bc0:	00000097          	auipc	ra,0x0
    80000bc4:	99a080e7          	jalr	-1638(ra) # 8000055a <panic>

0000000080000bc8 <print_lock>:

void
print_lock(struct spinlock *lk)
{
  if(lk->n > 0) 
    80000bc8:	4d14                	lw	a3,24(a0)
    80000bca:	e291                	bnez	a3,80000bce <print_lock+0x6>
    80000bcc:	8082                	ret
{
    80000bce:	1141                	addi	sp,sp,-16
    80000bd0:	e406                	sd	ra,8(sp)
    80000bd2:	e022                	sd	s0,0(sp)
    80000bd4:	0800                	addi	s0,sp,16
    printf("lock: %s: #test-and-set %d #acquire() %d\n", lk->name, lk->nts, lk->n);
    80000bd6:	4d50                	lw	a2,28(a0)
    80000bd8:	650c                	ld	a1,8(a0)
    80000bda:	00007517          	auipc	a0,0x7
    80000bde:	68e50513          	addi	a0,a0,1678 # 80008268 <userret+0x1d8>
    80000be2:	00000097          	auipc	ra,0x0
    80000be6:	9d2080e7          	jalr	-1582(ra) # 800005b4 <printf>
}
    80000bea:	60a2                	ld	ra,8(sp)
    80000bec:	6402                	ld	s0,0(sp)
    80000bee:	0141                	addi	sp,sp,16
    80000bf0:	8082                	ret

0000000080000bf2 <sys_ntas>:

uint64
sys_ntas(void)
{
    80000bf2:	711d                	addi	sp,sp,-96
    80000bf4:	ec86                	sd	ra,88(sp)
    80000bf6:	e8a2                	sd	s0,80(sp)
    80000bf8:	e4a6                	sd	s1,72(sp)
    80000bfa:	e0ca                	sd	s2,64(sp)
    80000bfc:	fc4e                	sd	s3,56(sp)
    80000bfe:	f852                	sd	s4,48(sp)
    80000c00:	f456                	sd	s5,40(sp)
    80000c02:	f05a                	sd	s6,32(sp)
    80000c04:	ec5e                	sd	s7,24(sp)
    80000c06:	e862                	sd	s8,16(sp)
    80000c08:	1080                	addi	s0,sp,96
  int zero = 0;
    80000c0a:	fa042623          	sw	zero,-84(s0)
  int tot = 0;
  
  if (argint(0, &zero) < 0) {
    80000c0e:	fac40593          	addi	a1,s0,-84
    80000c12:	4501                	li	a0,0
    80000c14:	00002097          	auipc	ra,0x2
    80000c18:	f6c080e7          	jalr	-148(ra) # 80002b80 <argint>
    80000c1c:	14054d63          	bltz	a0,80000d76 <sys_ntas+0x184>
    return -1;
  }
  if(zero == 0) {
    80000c20:	fac42783          	lw	a5,-84(s0)
    80000c24:	e78d                	bnez	a5,80000c4e <sys_ntas+0x5c>
    80000c26:	00012797          	auipc	a5,0x12
    80000c2a:	cda78793          	addi	a5,a5,-806 # 80012900 <locks>
    80000c2e:	00014697          	auipc	a3,0x14
    80000c32:	c1268693          	addi	a3,a3,-1006 # 80014840 <pid_lock>
    for(int i = 0; i < NLOCK; i++) {
      if(locks[i] == 0)
    80000c36:	6398                	ld	a4,0(a5)
    80000c38:	14070163          	beqz	a4,80000d7a <sys_ntas+0x188>
        break;
      locks[i]->nts = 0;
    80000c3c:	00072e23          	sw	zero,28(a4)
      locks[i]->n = 0;
    80000c40:	00072c23          	sw	zero,24(a4)
    for(int i = 0; i < NLOCK; i++) {
    80000c44:	07a1                	addi	a5,a5,8
    80000c46:	fed798e3          	bne	a5,a3,80000c36 <sys_ntas+0x44>
    }
    return 0;
    80000c4a:	4501                	li	a0,0
    80000c4c:	aa09                	j	80000d5e <sys_ntas+0x16c>
  }

  printf("=== lock kmem/bcache stats\n");
    80000c4e:	00007517          	auipc	a0,0x7
    80000c52:	64a50513          	addi	a0,a0,1610 # 80008298 <userret+0x208>
    80000c56:	00000097          	auipc	ra,0x0
    80000c5a:	95e080e7          	jalr	-1698(ra) # 800005b4 <printf>
  for(int i = 0; i < NLOCK; i++) {
    80000c5e:	00012b17          	auipc	s6,0x12
    80000c62:	ca2b0b13          	addi	s6,s6,-862 # 80012900 <locks>
    80000c66:	00014b97          	auipc	s7,0x14
    80000c6a:	bdab8b93          	addi	s7,s7,-1062 # 80014840 <pid_lock>
  printf("=== lock kmem/bcache stats\n");
    80000c6e:	84da                	mv	s1,s6
  int tot = 0;
    80000c70:	4981                	li	s3,0
    if(locks[i] == 0)
      break;
    if(strncmp(locks[i]->name, "bcache", strlen("bcache")) == 0 ||
    80000c72:	00007a17          	auipc	s4,0x7
    80000c76:	646a0a13          	addi	s4,s4,1606 # 800082b8 <userret+0x228>
       strncmp(locks[i]->name, "kmem", strlen("kmem")) == 0) {
    80000c7a:	00007c17          	auipc	s8,0x7
    80000c7e:	5a6c0c13          	addi	s8,s8,1446 # 80008220 <userret+0x190>
    80000c82:	a829                	j	80000c9c <sys_ntas+0xaa>
      tot += locks[i]->nts;
    80000c84:	00093503          	ld	a0,0(s2)
    80000c88:	4d5c                	lw	a5,28(a0)
    80000c8a:	013789bb          	addw	s3,a5,s3
      print_lock(locks[i]);
    80000c8e:	00000097          	auipc	ra,0x0
    80000c92:	f3a080e7          	jalr	-198(ra) # 80000bc8 <print_lock>
  for(int i = 0; i < NLOCK; i++) {
    80000c96:	04a1                	addi	s1,s1,8
    80000c98:	05748763          	beq	s1,s7,80000ce6 <sys_ntas+0xf4>
    if(locks[i] == 0)
    80000c9c:	8926                	mv	s2,s1
    80000c9e:	609c                	ld	a5,0(s1)
    80000ca0:	c3b9                	beqz	a5,80000ce6 <sys_ntas+0xf4>
    if(strncmp(locks[i]->name, "bcache", strlen("bcache")) == 0 ||
    80000ca2:	0087ba83          	ld	s5,8(a5)
    80000ca6:	8552                	mv	a0,s4
    80000ca8:	00000097          	auipc	ra,0x0
    80000cac:	25e080e7          	jalr	606(ra) # 80000f06 <strlen>
    80000cb0:	0005061b          	sext.w	a2,a0
    80000cb4:	85d2                	mv	a1,s4
    80000cb6:	8556                	mv	a0,s5
    80000cb8:	00000097          	auipc	ra,0x0
    80000cbc:	1a2080e7          	jalr	418(ra) # 80000e5a <strncmp>
    80000cc0:	d171                	beqz	a0,80000c84 <sys_ntas+0x92>
       strncmp(locks[i]->name, "kmem", strlen("kmem")) == 0) {
    80000cc2:	609c                	ld	a5,0(s1)
    80000cc4:	0087ba83          	ld	s5,8(a5)
    80000cc8:	8562                	mv	a0,s8
    80000cca:	00000097          	auipc	ra,0x0
    80000cce:	23c080e7          	jalr	572(ra) # 80000f06 <strlen>
    80000cd2:	0005061b          	sext.w	a2,a0
    80000cd6:	85e2                	mv	a1,s8
    80000cd8:	8556                	mv	a0,s5
    80000cda:	00000097          	auipc	ra,0x0
    80000cde:	180080e7          	jalr	384(ra) # 80000e5a <strncmp>
    if(strncmp(locks[i]->name, "bcache", strlen("bcache")) == 0 ||
    80000ce2:	f955                	bnez	a0,80000c96 <sys_ntas+0xa4>
    80000ce4:	b745                	j	80000c84 <sys_ntas+0x92>
    }
  }

  printf("=== top 5 contended locks:\n");
    80000ce6:	00007517          	auipc	a0,0x7
    80000cea:	5da50513          	addi	a0,a0,1498 # 800082c0 <userret+0x230>
    80000cee:	00000097          	auipc	ra,0x0
    80000cf2:	8c6080e7          	jalr	-1850(ra) # 800005b4 <printf>
    80000cf6:	4a15                	li	s4,5
  int last = 100000000;
    80000cf8:	05f5e537          	lui	a0,0x5f5e
    80000cfc:	10050513          	addi	a0,a0,256 # 5f5e100 <_entry-0x7a0a1f00>
  // stupid way to compute top 5 contended locks
  for(int t= 0; t < 5; t++) {
    int top = 0;
    for(int i = 0; i < NLOCK; i++) {
    80000d00:	4a81                	li	s5,0
      if(locks[i] == 0)
        break;
      if(locks[i]->nts > locks[top]->nts && locks[i]->nts < last) {
    80000d02:	00012497          	auipc	s1,0x12
    80000d06:	bfe48493          	addi	s1,s1,-1026 # 80012900 <locks>
    for(int i = 0; i < NLOCK; i++) {
    80000d0a:	3e800913          	li	s2,1000
    80000d0e:	a091                	j	80000d52 <sys_ntas+0x160>
    80000d10:	2705                	addiw	a4,a4,1
    80000d12:	06a1                	addi	a3,a3,8
    80000d14:	03270063          	beq	a4,s2,80000d34 <sys_ntas+0x142>
      if(locks[i] == 0)
    80000d18:	629c                	ld	a5,0(a3)
    80000d1a:	cf89                	beqz	a5,80000d34 <sys_ntas+0x142>
      if(locks[i]->nts > locks[top]->nts && locks[i]->nts < last) {
    80000d1c:	4fd0                	lw	a2,28(a5)
    80000d1e:	00359793          	slli	a5,a1,0x3
    80000d22:	97a6                	add	a5,a5,s1
    80000d24:	639c                	ld	a5,0(a5)
    80000d26:	4fdc                	lw	a5,28(a5)
    80000d28:	fec7f4e3          	bgeu	a5,a2,80000d10 <sys_ntas+0x11e>
    80000d2c:	fea672e3          	bgeu	a2,a0,80000d10 <sys_ntas+0x11e>
    80000d30:	85ba                	mv	a1,a4
    80000d32:	bff9                	j	80000d10 <sys_ntas+0x11e>
        top = i;
      }
    }
    print_lock(locks[top]);
    80000d34:	058e                	slli	a1,a1,0x3
    80000d36:	00b48bb3          	add	s7,s1,a1
    80000d3a:	000bb503          	ld	a0,0(s7)
    80000d3e:	00000097          	auipc	ra,0x0
    80000d42:	e8a080e7          	jalr	-374(ra) # 80000bc8 <print_lock>
    last = locks[top]->nts;
    80000d46:	000bb783          	ld	a5,0(s7)
    80000d4a:	4fc8                	lw	a0,28(a5)
  for(int t= 0; t < 5; t++) {
    80000d4c:	3a7d                	addiw	s4,s4,-1
    80000d4e:	000a0763          	beqz	s4,80000d5c <sys_ntas+0x16a>
  int tot = 0;
    80000d52:	86da                	mv	a3,s6
    for(int i = 0; i < NLOCK; i++) {
    80000d54:	8756                	mv	a4,s5
    int top = 0;
    80000d56:	85d6                	mv	a1,s5
      if(locks[i]->nts > locks[top]->nts && locks[i]->nts < last) {
    80000d58:	2501                	sext.w	a0,a0
    80000d5a:	bf7d                	j	80000d18 <sys_ntas+0x126>
  }
  return tot;
    80000d5c:	854e                	mv	a0,s3
}
    80000d5e:	60e6                	ld	ra,88(sp)
    80000d60:	6446                	ld	s0,80(sp)
    80000d62:	64a6                	ld	s1,72(sp)
    80000d64:	6906                	ld	s2,64(sp)
    80000d66:	79e2                	ld	s3,56(sp)
    80000d68:	7a42                	ld	s4,48(sp)
    80000d6a:	7aa2                	ld	s5,40(sp)
    80000d6c:	7b02                	ld	s6,32(sp)
    80000d6e:	6be2                	ld	s7,24(sp)
    80000d70:	6c42                	ld	s8,16(sp)
    80000d72:	6125                	addi	sp,sp,96
    80000d74:	8082                	ret
    return -1;
    80000d76:	557d                	li	a0,-1
    80000d78:	b7dd                	j	80000d5e <sys_ntas+0x16c>
    return 0;
    80000d7a:	4501                	li	a0,0
    80000d7c:	b7cd                	j	80000d5e <sys_ntas+0x16c>

0000000080000d7e <memset>:
#include "types.h"

void*
memset(void *dst, int c, uint n)
{
    80000d7e:	1141                	addi	sp,sp,-16
    80000d80:	e422                	sd	s0,8(sp)
    80000d82:	0800                	addi	s0,sp,16
  char *cdst = (char *) dst;
  int i;
  for(i = 0; i < n; i++){
    80000d84:	ce09                	beqz	a2,80000d9e <memset+0x20>
    80000d86:	87aa                	mv	a5,a0
    80000d88:	fff6071b          	addiw	a4,a2,-1
    80000d8c:	1702                	slli	a4,a4,0x20
    80000d8e:	9301                	srli	a4,a4,0x20
    80000d90:	0705                	addi	a4,a4,1
    80000d92:	972a                	add	a4,a4,a0
    cdst[i] = c;
    80000d94:	00b78023          	sb	a1,0(a5)
  for(i = 0; i < n; i++){
    80000d98:	0785                	addi	a5,a5,1
    80000d9a:	fee79de3          	bne	a5,a4,80000d94 <memset+0x16>
  }
  return dst;
}
    80000d9e:	6422                	ld	s0,8(sp)
    80000da0:	0141                	addi	sp,sp,16
    80000da2:	8082                	ret

0000000080000da4 <memcmp>:

int
memcmp(const void *v1, const void *v2, uint n)
{
    80000da4:	1141                	addi	sp,sp,-16
    80000da6:	e422                	sd	s0,8(sp)
    80000da8:	0800                	addi	s0,sp,16
  const uchar *s1, *s2;

  s1 = v1;
  s2 = v2;
  while(n-- > 0){
    80000daa:	ca05                	beqz	a2,80000dda <memcmp+0x36>
    80000dac:	fff6069b          	addiw	a3,a2,-1
    80000db0:	1682                	slli	a3,a3,0x20
    80000db2:	9281                	srli	a3,a3,0x20
    80000db4:	0685                	addi	a3,a3,1
    80000db6:	96aa                	add	a3,a3,a0
    if(*s1 != *s2)
    80000db8:	00054783          	lbu	a5,0(a0)
    80000dbc:	0005c703          	lbu	a4,0(a1)
    80000dc0:	00e79863          	bne	a5,a4,80000dd0 <memcmp+0x2c>
      return *s1 - *s2;
    s1++, s2++;
    80000dc4:	0505                	addi	a0,a0,1
    80000dc6:	0585                	addi	a1,a1,1
  while(n-- > 0){
    80000dc8:	fed518e3          	bne	a0,a3,80000db8 <memcmp+0x14>
  }

  return 0;
    80000dcc:	4501                	li	a0,0
    80000dce:	a019                	j	80000dd4 <memcmp+0x30>
      return *s1 - *s2;
    80000dd0:	40e7853b          	subw	a0,a5,a4
}
    80000dd4:	6422                	ld	s0,8(sp)
    80000dd6:	0141                	addi	sp,sp,16
    80000dd8:	8082                	ret
  return 0;
    80000dda:	4501                	li	a0,0
    80000ddc:	bfe5                	j	80000dd4 <memcmp+0x30>

0000000080000dde <memmove>:

void*
memmove(void *dst, const void *src, uint n)
{
    80000dde:	1141                	addi	sp,sp,-16
    80000de0:	e422                	sd	s0,8(sp)
    80000de2:	0800                	addi	s0,sp,16
  const char *s;
  char *d;

  s = src;
  d = dst;
  if(s < d && s + n > d){
    80000de4:	02a5e563          	bltu	a1,a0,80000e0e <memmove+0x30>
    s += n;
    d += n;
    while(n-- > 0)
      *--d = *--s;
  } else
    while(n-- > 0)
    80000de8:	fff6069b          	addiw	a3,a2,-1
    80000dec:	ce11                	beqz	a2,80000e08 <memmove+0x2a>
    80000dee:	1682                	slli	a3,a3,0x20
    80000df0:	9281                	srli	a3,a3,0x20
    80000df2:	0685                	addi	a3,a3,1
    80000df4:	96ae                	add	a3,a3,a1
    80000df6:	87aa                	mv	a5,a0
      *d++ = *s++;
    80000df8:	0585                	addi	a1,a1,1
    80000dfa:	0785                	addi	a5,a5,1
    80000dfc:	fff5c703          	lbu	a4,-1(a1)
    80000e00:	fee78fa3          	sb	a4,-1(a5)
    while(n-- > 0)
    80000e04:	fed59ae3          	bne	a1,a3,80000df8 <memmove+0x1a>

  return dst;
}
    80000e08:	6422                	ld	s0,8(sp)
    80000e0a:	0141                	addi	sp,sp,16
    80000e0c:	8082                	ret
  if(s < d && s + n > d){
    80000e0e:	02061713          	slli	a4,a2,0x20
    80000e12:	9301                	srli	a4,a4,0x20
    80000e14:	00e587b3          	add	a5,a1,a4
    80000e18:	fcf578e3          	bgeu	a0,a5,80000de8 <memmove+0xa>
    d += n;
    80000e1c:	972a                	add	a4,a4,a0
    while(n-- > 0)
    80000e1e:	fff6069b          	addiw	a3,a2,-1
    80000e22:	d27d                	beqz	a2,80000e08 <memmove+0x2a>
    80000e24:	02069613          	slli	a2,a3,0x20
    80000e28:	9201                	srli	a2,a2,0x20
    80000e2a:	fff64613          	not	a2,a2
    80000e2e:	963e                	add	a2,a2,a5
      *--d = *--s;
    80000e30:	17fd                	addi	a5,a5,-1
    80000e32:	177d                	addi	a4,a4,-1
    80000e34:	0007c683          	lbu	a3,0(a5)
    80000e38:	00d70023          	sb	a3,0(a4)
    while(n-- > 0)
    80000e3c:	fec79ae3          	bne	a5,a2,80000e30 <memmove+0x52>
    80000e40:	b7e1                	j	80000e08 <memmove+0x2a>

0000000080000e42 <memcpy>:

// memcpy exists to placate GCC.  Use memmove.
void*
memcpy(void *dst, const void *src, uint n)
{
    80000e42:	1141                	addi	sp,sp,-16
    80000e44:	e406                	sd	ra,8(sp)
    80000e46:	e022                	sd	s0,0(sp)
    80000e48:	0800                	addi	s0,sp,16
  return memmove(dst, src, n);
    80000e4a:	00000097          	auipc	ra,0x0
    80000e4e:	f94080e7          	jalr	-108(ra) # 80000dde <memmove>
}
    80000e52:	60a2                	ld	ra,8(sp)
    80000e54:	6402                	ld	s0,0(sp)
    80000e56:	0141                	addi	sp,sp,16
    80000e58:	8082                	ret

0000000080000e5a <strncmp>:

int
strncmp(const char *p, const char *q, uint n)
{
    80000e5a:	1141                	addi	sp,sp,-16
    80000e5c:	e422                	sd	s0,8(sp)
    80000e5e:	0800                	addi	s0,sp,16
  while(n > 0 && *p && *p == *q)
    80000e60:	ce11                	beqz	a2,80000e7c <strncmp+0x22>
    80000e62:	00054783          	lbu	a5,0(a0)
    80000e66:	cf89                	beqz	a5,80000e80 <strncmp+0x26>
    80000e68:	0005c703          	lbu	a4,0(a1)
    80000e6c:	00f71a63          	bne	a4,a5,80000e80 <strncmp+0x26>
    n--, p++, q++;
    80000e70:	367d                	addiw	a2,a2,-1
    80000e72:	0505                	addi	a0,a0,1
    80000e74:	0585                	addi	a1,a1,1
  while(n > 0 && *p && *p == *q)
    80000e76:	f675                	bnez	a2,80000e62 <strncmp+0x8>
  if(n == 0)
    return 0;
    80000e78:	4501                	li	a0,0
    80000e7a:	a809                	j	80000e8c <strncmp+0x32>
    80000e7c:	4501                	li	a0,0
    80000e7e:	a039                	j	80000e8c <strncmp+0x32>
  if(n == 0)
    80000e80:	ca09                	beqz	a2,80000e92 <strncmp+0x38>
  return (uchar)*p - (uchar)*q;
    80000e82:	00054503          	lbu	a0,0(a0)
    80000e86:	0005c783          	lbu	a5,0(a1)
    80000e8a:	9d1d                	subw	a0,a0,a5
}
    80000e8c:	6422                	ld	s0,8(sp)
    80000e8e:	0141                	addi	sp,sp,16
    80000e90:	8082                	ret
    return 0;
    80000e92:	4501                	li	a0,0
    80000e94:	bfe5                	j	80000e8c <strncmp+0x32>

0000000080000e96 <strncpy>:

char*
strncpy(char *s, const char *t, int n)
{
    80000e96:	1141                	addi	sp,sp,-16
    80000e98:	e422                	sd	s0,8(sp)
    80000e9a:	0800                	addi	s0,sp,16
  char *os;

  os = s;
  while(n-- > 0 && (*s++ = *t++) != 0)
    80000e9c:	872a                	mv	a4,a0
    80000e9e:	8832                	mv	a6,a2
    80000ea0:	367d                	addiw	a2,a2,-1
    80000ea2:	01005963          	blez	a6,80000eb4 <strncpy+0x1e>
    80000ea6:	0705                	addi	a4,a4,1
    80000ea8:	0005c783          	lbu	a5,0(a1)
    80000eac:	fef70fa3          	sb	a5,-1(a4)
    80000eb0:	0585                	addi	a1,a1,1
    80000eb2:	f7f5                	bnez	a5,80000e9e <strncpy+0x8>
    ;
  while(n-- > 0)
    80000eb4:	86ba                	mv	a3,a4
    80000eb6:	00c05c63          	blez	a2,80000ece <strncpy+0x38>
    *s++ = 0;
    80000eba:	0685                	addi	a3,a3,1
    80000ebc:	fe068fa3          	sb	zero,-1(a3)
  while(n-- > 0)
    80000ec0:	fff6c793          	not	a5,a3
    80000ec4:	9fb9                	addw	a5,a5,a4
    80000ec6:	010787bb          	addw	a5,a5,a6
    80000eca:	fef048e3          	bgtz	a5,80000eba <strncpy+0x24>
  return os;
}
    80000ece:	6422                	ld	s0,8(sp)
    80000ed0:	0141                	addi	sp,sp,16
    80000ed2:	8082                	ret

0000000080000ed4 <safestrcpy>:

// Like strncpy but guaranteed to NUL-terminate.
char*
safestrcpy(char *s, const char *t, int n)
{
    80000ed4:	1141                	addi	sp,sp,-16
    80000ed6:	e422                	sd	s0,8(sp)
    80000ed8:	0800                	addi	s0,sp,16
  char *os;

  os = s;
  if(n <= 0)
    80000eda:	02c05363          	blez	a2,80000f00 <safestrcpy+0x2c>
    80000ede:	fff6069b          	addiw	a3,a2,-1
    80000ee2:	1682                	slli	a3,a3,0x20
    80000ee4:	9281                	srli	a3,a3,0x20
    80000ee6:	96ae                	add	a3,a3,a1
    80000ee8:	87aa                	mv	a5,a0
    return os;
  while(--n > 0 && (*s++ = *t++) != 0)
    80000eea:	00d58963          	beq	a1,a3,80000efc <safestrcpy+0x28>
    80000eee:	0585                	addi	a1,a1,1
    80000ef0:	0785                	addi	a5,a5,1
    80000ef2:	fff5c703          	lbu	a4,-1(a1)
    80000ef6:	fee78fa3          	sb	a4,-1(a5)
    80000efa:	fb65                	bnez	a4,80000eea <safestrcpy+0x16>
    ;
  *s = 0;
    80000efc:	00078023          	sb	zero,0(a5)
  return os;
}
    80000f00:	6422                	ld	s0,8(sp)
    80000f02:	0141                	addi	sp,sp,16
    80000f04:	8082                	ret

0000000080000f06 <strlen>:

int
strlen(const char *s)
{
    80000f06:	1141                	addi	sp,sp,-16
    80000f08:	e422                	sd	s0,8(sp)
    80000f0a:	0800                	addi	s0,sp,16
  int n;

  for(n = 0; s[n]; n++)
    80000f0c:	00054783          	lbu	a5,0(a0)
    80000f10:	cf91                	beqz	a5,80000f2c <strlen+0x26>
    80000f12:	0505                	addi	a0,a0,1
    80000f14:	87aa                	mv	a5,a0
    80000f16:	4685                	li	a3,1
    80000f18:	9e89                	subw	a3,a3,a0
    80000f1a:	00f6853b          	addw	a0,a3,a5
    80000f1e:	0785                	addi	a5,a5,1
    80000f20:	fff7c703          	lbu	a4,-1(a5)
    80000f24:	fb7d                	bnez	a4,80000f1a <strlen+0x14>
    ;
  return n;
}
    80000f26:	6422                	ld	s0,8(sp)
    80000f28:	0141                	addi	sp,sp,16
    80000f2a:	8082                	ret
  for(n = 0; s[n]; n++)
    80000f2c:	4501                	li	a0,0
    80000f2e:	bfe5                	j	80000f26 <strlen+0x20>

0000000080000f30 <main>:
volatile static int started = 0;

// start() jumps here in supervisor mode on all CPUs.
void
main()
{
    80000f30:	1141                	addi	sp,sp,-16
    80000f32:	e406                	sd	ra,8(sp)
    80000f34:	e022                	sd	s0,0(sp)
    80000f36:	0800                	addi	s0,sp,16
  if(cpuid() == 0){
    80000f38:	00001097          	auipc	ra,0x1
    80000f3c:	b06080e7          	jalr	-1274(ra) # 80001a3e <cpuid>
    virtio_disk_init(minor(ROOTDEV)); // emulated hard disk
    userinit();      // first user process
    __sync_synchronize();
    started = 1;
  } else {
    while(started == 0)
    80000f40:	00027717          	auipc	a4,0x27
    80000f44:	0e870713          	addi	a4,a4,232 # 80028028 <started>
  if(cpuid() == 0){
    80000f48:	c139                	beqz	a0,80000f8e <main+0x5e>
    while(started == 0)
    80000f4a:	431c                	lw	a5,0(a4)
    80000f4c:	2781                	sext.w	a5,a5
    80000f4e:	dff5                	beqz	a5,80000f4a <main+0x1a>
      ;
    __sync_synchronize();
    80000f50:	0ff0000f          	fence
    printf("hart %d starting\n", cpuid());
    80000f54:	00001097          	auipc	ra,0x1
    80000f58:	aea080e7          	jalr	-1302(ra) # 80001a3e <cpuid>
    80000f5c:	85aa                	mv	a1,a0
    80000f5e:	00007517          	auipc	a0,0x7
    80000f62:	39a50513          	addi	a0,a0,922 # 800082f8 <userret+0x268>
    80000f66:	fffff097          	auipc	ra,0xfffff
    80000f6a:	64e080e7          	jalr	1614(ra) # 800005b4 <printf>
    kvminithart();    // turn on paging
    80000f6e:	00000097          	auipc	ra,0x0
    80000f72:	1ea080e7          	jalr	490(ra) # 80001158 <kvminithart>
    trapinithart();   // install kernel trap vector
    80000f76:	00001097          	auipc	ra,0x1
    80000f7a:	796080e7          	jalr	1942(ra) # 8000270c <trapinithart>
    plicinithart();   // ask PLIC for device interrupts
    80000f7e:	00005097          	auipc	ra,0x5
    80000f82:	e42080e7          	jalr	-446(ra) # 80005dc0 <plicinithart>
  }

  scheduler();        
    80000f86:	00001097          	auipc	ra,0x1
    80000f8a:	fbe080e7          	jalr	-66(ra) # 80001f44 <scheduler>
    consoleinit();
    80000f8e:	fffff097          	auipc	ra,0xfffff
    80000f92:	4de080e7          	jalr	1246(ra) # 8000046c <consoleinit>
    printfinit();
    80000f96:	00000097          	auipc	ra,0x0
    80000f9a:	804080e7          	jalr	-2044(ra) # 8000079a <printfinit>
    printf("\n");
    80000f9e:	00007517          	auipc	a0,0x7
    80000fa2:	2f250513          	addi	a0,a0,754 # 80008290 <userret+0x200>
    80000fa6:	fffff097          	auipc	ra,0xfffff
    80000faa:	60e080e7          	jalr	1550(ra) # 800005b4 <printf>
    printf("xv6 kernel is booting\n");
    80000fae:	00007517          	auipc	a0,0x7
    80000fb2:	33250513          	addi	a0,a0,818 # 800082e0 <userret+0x250>
    80000fb6:	fffff097          	auipc	ra,0xfffff
    80000fba:	5fe080e7          	jalr	1534(ra) # 800005b4 <printf>
    printf("\n");
    80000fbe:	00007517          	auipc	a0,0x7
    80000fc2:	2d250513          	addi	a0,a0,722 # 80008290 <userret+0x200>
    80000fc6:	fffff097          	auipc	ra,0xfffff
    80000fca:	5ee080e7          	jalr	1518(ra) # 800005b4 <printf>
    kinit();         // physical page allocator
    80000fce:	00000097          	auipc	ra,0x0
    80000fd2:	972080e7          	jalr	-1678(ra) # 80000940 <kinit>
    kvminit();       // create kernel page table
    80000fd6:	00000097          	auipc	ra,0x0
    80000fda:	30c080e7          	jalr	780(ra) # 800012e2 <kvminit>
    kvminithart();   // turn on paging
    80000fde:	00000097          	auipc	ra,0x0
    80000fe2:	17a080e7          	jalr	378(ra) # 80001158 <kvminithart>
    procinit();      // process table
    80000fe6:	00001097          	auipc	ra,0x1
    80000fea:	988080e7          	jalr	-1656(ra) # 8000196e <procinit>
    trapinit();      // trap vectors
    80000fee:	00001097          	auipc	ra,0x1
    80000ff2:	6f6080e7          	jalr	1782(ra) # 800026e4 <trapinit>
    trapinithart();  // install kernel trap vector
    80000ff6:	00001097          	auipc	ra,0x1
    80000ffa:	716080e7          	jalr	1814(ra) # 8000270c <trapinithart>
    plicinit();      // set up interrupt controller
    80000ffe:	00005097          	auipc	ra,0x5
    80001002:	dac080e7          	jalr	-596(ra) # 80005daa <plicinit>
    plicinithart();  // ask PLIC for device interrupts
    80001006:	00005097          	auipc	ra,0x5
    8000100a:	dba080e7          	jalr	-582(ra) # 80005dc0 <plicinithart>
    binit();         // buffer cache
    8000100e:	00002097          	auipc	ra,0x2
    80001012:	e54080e7          	jalr	-428(ra) # 80002e62 <binit>
    iinit();         // inode cache
    80001016:	00002097          	auipc	ra,0x2
    8000101a:	4e8080e7          	jalr	1256(ra) # 800034fe <iinit>
    fileinit();      // file table
    8000101e:	00003097          	auipc	ra,0x3
    80001022:	572080e7          	jalr	1394(ra) # 80004590 <fileinit>
    virtio_disk_init(minor(ROOTDEV)); // emulated hard disk
    80001026:	4501                	li	a0,0
    80001028:	00005097          	auipc	ra,0x5
    8000102c:	eba080e7          	jalr	-326(ra) # 80005ee2 <virtio_disk_init>
    userinit();      // first user process
    80001030:	00001097          	auipc	ra,0x1
    80001034:	cae080e7          	jalr	-850(ra) # 80001cde <userinit>
    __sync_synchronize();
    80001038:	0ff0000f          	fence
    started = 1;
    8000103c:	4785                	li	a5,1
    8000103e:	00027717          	auipc	a4,0x27
    80001042:	fef72523          	sw	a5,-22(a4) # 80028028 <started>
    80001046:	b781                	j	80000f86 <main+0x56>

0000000080001048 <walk>:
//   21..39 -- 9 bits of level-1 index.
//   12..20 -- 9 bits of level-0 index.
//    0..12 -- 12 bits of byte offset within the page.
static pte_t *
walk(pagetable_t pagetable, uint64 va, int alloc)
{
    80001048:	7139                	addi	sp,sp,-64
    8000104a:	fc06                	sd	ra,56(sp)
    8000104c:	f822                	sd	s0,48(sp)
    8000104e:	f426                	sd	s1,40(sp)
    80001050:	f04a                	sd	s2,32(sp)
    80001052:	ec4e                	sd	s3,24(sp)
    80001054:	e852                	sd	s4,16(sp)
    80001056:	e456                	sd	s5,8(sp)
    80001058:	e05a                	sd	s6,0(sp)
    8000105a:	0080                	addi	s0,sp,64
    8000105c:	84aa                	mv	s1,a0
    8000105e:	89ae                	mv	s3,a1
    80001060:	8ab2                	mv	s5,a2
  if(va >= MAXVA)
    80001062:	57fd                	li	a5,-1
    80001064:	83e9                	srli	a5,a5,0x1a
    80001066:	4a79                	li	s4,30
    panic("walk");

  for(int level = 2; level > 0; level--) {
    80001068:	4b31                	li	s6,12
  if(va >= MAXVA)
    8000106a:	04b7f263          	bgeu	a5,a1,800010ae <walk+0x66>
    panic("walk");
    8000106e:	00007517          	auipc	a0,0x7
    80001072:	2a250513          	addi	a0,a0,674 # 80008310 <userret+0x280>
    80001076:	fffff097          	auipc	ra,0xfffff
    8000107a:	4e4080e7          	jalr	1252(ra) # 8000055a <panic>
    pte_t *pte = &pagetable[PX(level, va)];
    if(*pte & PTE_V) {
      pagetable = (pagetable_t)PTE2PA(*pte);
    } else {
      if(!alloc || (pagetable = (pde_t*)kalloc()) == 0)
    8000107e:	060a8663          	beqz	s5,800010ea <walk+0xa2>
    80001082:	00000097          	auipc	ra,0x0
    80001086:	8fa080e7          	jalr	-1798(ra) # 8000097c <kalloc>
    8000108a:	84aa                	mv	s1,a0
    8000108c:	c529                	beqz	a0,800010d6 <walk+0x8e>
        return 0;
      memset(pagetable, 0, PGSIZE);
    8000108e:	6605                	lui	a2,0x1
    80001090:	4581                	li	a1,0
    80001092:	00000097          	auipc	ra,0x0
    80001096:	cec080e7          	jalr	-788(ra) # 80000d7e <memset>
      *pte = PA2PTE(pagetable) | PTE_V;
    8000109a:	00c4d793          	srli	a5,s1,0xc
    8000109e:	07aa                	slli	a5,a5,0xa
    800010a0:	0017e793          	ori	a5,a5,1
    800010a4:	00f93023          	sd	a5,0(s2)
  for(int level = 2; level > 0; level--) {
    800010a8:	3a5d                	addiw	s4,s4,-9
    800010aa:	036a0063          	beq	s4,s6,800010ca <walk+0x82>
    pte_t *pte = &pagetable[PX(level, va)];
    800010ae:	0149d933          	srl	s2,s3,s4
    800010b2:	1ff97913          	andi	s2,s2,511
    800010b6:	090e                	slli	s2,s2,0x3
    800010b8:	9926                	add	s2,s2,s1
    if(*pte & PTE_V) {
    800010ba:	00093483          	ld	s1,0(s2)
    800010be:	0014f793          	andi	a5,s1,1
    800010c2:	dfd5                	beqz	a5,8000107e <walk+0x36>
      pagetable = (pagetable_t)PTE2PA(*pte);
    800010c4:	80a9                	srli	s1,s1,0xa
    800010c6:	04b2                	slli	s1,s1,0xc
    800010c8:	b7c5                	j	800010a8 <walk+0x60>
    }
  }
  return &pagetable[PX(0, va)];
    800010ca:	00c9d513          	srli	a0,s3,0xc
    800010ce:	1ff57513          	andi	a0,a0,511
    800010d2:	050e                	slli	a0,a0,0x3
    800010d4:	9526                	add	a0,a0,s1
}
    800010d6:	70e2                	ld	ra,56(sp)
    800010d8:	7442                	ld	s0,48(sp)
    800010da:	74a2                	ld	s1,40(sp)
    800010dc:	7902                	ld	s2,32(sp)
    800010de:	69e2                	ld	s3,24(sp)
    800010e0:	6a42                	ld	s4,16(sp)
    800010e2:	6aa2                	ld	s5,8(sp)
    800010e4:	6b02                	ld	s6,0(sp)
    800010e6:	6121                	addi	sp,sp,64
    800010e8:	8082                	ret
        return 0;
    800010ea:	4501                	li	a0,0
    800010ec:	b7ed                	j	800010d6 <walk+0x8e>

00000000800010ee <freewalk>:

// Recursively free page-table pages.
// All leaf mappings must already have been removed.
static void
freewalk(pagetable_t pagetable)
{
    800010ee:	7179                	addi	sp,sp,-48
    800010f0:	f406                	sd	ra,40(sp)
    800010f2:	f022                	sd	s0,32(sp)
    800010f4:	ec26                	sd	s1,24(sp)
    800010f6:	e84a                	sd	s2,16(sp)
    800010f8:	e44e                	sd	s3,8(sp)
    800010fa:	e052                	sd	s4,0(sp)
    800010fc:	1800                	addi	s0,sp,48
    800010fe:	8a2a                	mv	s4,a0
  // there are 2^9 = 512 PTEs in a page table.
  for(int i = 0; i < 512; i++){
    80001100:	84aa                	mv	s1,a0
    80001102:	6905                	lui	s2,0x1
    80001104:	992a                	add	s2,s2,a0
    pte_t pte = pagetable[i];
    if((pte & PTE_V) && (pte & (PTE_R|PTE_W|PTE_X)) == 0){
    80001106:	4985                	li	s3,1
    80001108:	a821                	j	80001120 <freewalk+0x32>
      // this PTE points to a lower-level page table.
      uint64 child = PTE2PA(pte);
    8000110a:	8129                	srli	a0,a0,0xa
      freewalk((pagetable_t)child);
    8000110c:	0532                	slli	a0,a0,0xc
    8000110e:	00000097          	auipc	ra,0x0
    80001112:	fe0080e7          	jalr	-32(ra) # 800010ee <freewalk>
      pagetable[i] = 0;
    80001116:	0004b023          	sd	zero,0(s1)
  for(int i = 0; i < 512; i++){
    8000111a:	04a1                	addi	s1,s1,8
    8000111c:	03248163          	beq	s1,s2,8000113e <freewalk+0x50>
    pte_t pte = pagetable[i];
    80001120:	6088                	ld	a0,0(s1)
    if((pte & PTE_V) && (pte & (PTE_R|PTE_W|PTE_X)) == 0){
    80001122:	00f57793          	andi	a5,a0,15
    80001126:	ff3782e3          	beq	a5,s3,8000110a <freewalk+0x1c>
    } else if(pte & PTE_V){
    8000112a:	8905                	andi	a0,a0,1
    8000112c:	d57d                	beqz	a0,8000111a <freewalk+0x2c>
      panic("freewalk: leaf");
    8000112e:	00007517          	auipc	a0,0x7
    80001132:	1ea50513          	addi	a0,a0,490 # 80008318 <userret+0x288>
    80001136:	fffff097          	auipc	ra,0xfffff
    8000113a:	424080e7          	jalr	1060(ra) # 8000055a <panic>
    }
  }
  kfree((void*)pagetable);
    8000113e:	8552                	mv	a0,s4
    80001140:	fffff097          	auipc	ra,0xfffff
    80001144:	740080e7          	jalr	1856(ra) # 80000880 <kfree>
}
    80001148:	70a2                	ld	ra,40(sp)
    8000114a:	7402                	ld	s0,32(sp)
    8000114c:	64e2                	ld	s1,24(sp)
    8000114e:	6942                	ld	s2,16(sp)
    80001150:	69a2                	ld	s3,8(sp)
    80001152:	6a02                	ld	s4,0(sp)
    80001154:	6145                	addi	sp,sp,48
    80001156:	8082                	ret

0000000080001158 <kvminithart>:
{
    80001158:	1141                	addi	sp,sp,-16
    8000115a:	e422                	sd	s0,8(sp)
    8000115c:	0800                	addi	s0,sp,16
  w_satp(MAKE_SATP(kernel_pagetable));
    8000115e:	00027797          	auipc	a5,0x27
    80001162:	ed27b783          	ld	a5,-302(a5) # 80028030 <kernel_pagetable>
    80001166:	83b1                	srli	a5,a5,0xc
    80001168:	577d                	li	a4,-1
    8000116a:	177e                	slli	a4,a4,0x3f
    8000116c:	8fd9                	or	a5,a5,a4
  asm volatile("csrw satp, %0" : : "r" (x));
    8000116e:	18079073          	csrw	satp,a5
// flush the TLB.
static inline void
sfence_vma()
{
  // the zero, zero means flush all TLB entries.
  asm volatile("sfence.vma zero, zero");
    80001172:	12000073          	sfence.vma
}
    80001176:	6422                	ld	s0,8(sp)
    80001178:	0141                	addi	sp,sp,16
    8000117a:	8082                	ret

000000008000117c <walkaddr>:
  if(va >= MAXVA)
    8000117c:	57fd                	li	a5,-1
    8000117e:	83e9                	srli	a5,a5,0x1a
    80001180:	00b7f463          	bgeu	a5,a1,80001188 <walkaddr+0xc>
    return 0;
    80001184:	4501                	li	a0,0
}
    80001186:	8082                	ret
{
    80001188:	1141                	addi	sp,sp,-16
    8000118a:	e406                	sd	ra,8(sp)
    8000118c:	e022                	sd	s0,0(sp)
    8000118e:	0800                	addi	s0,sp,16
  pte = walk(pagetable, va, 0);
    80001190:	4601                	li	a2,0
    80001192:	00000097          	auipc	ra,0x0
    80001196:	eb6080e7          	jalr	-330(ra) # 80001048 <walk>
  if(pte == 0)
    8000119a:	c105                	beqz	a0,800011ba <walkaddr+0x3e>
  if((*pte & PTE_V) == 0)
    8000119c:	611c                	ld	a5,0(a0)
  if((*pte & PTE_U) == 0)
    8000119e:	0117f693          	andi	a3,a5,17
    800011a2:	4745                	li	a4,17
    return 0;
    800011a4:	4501                	li	a0,0
  if((*pte & PTE_U) == 0)
    800011a6:	00e68663          	beq	a3,a4,800011b2 <walkaddr+0x36>
}
    800011aa:	60a2                	ld	ra,8(sp)
    800011ac:	6402                	ld	s0,0(sp)
    800011ae:	0141                	addi	sp,sp,16
    800011b0:	8082                	ret
  pa = PTE2PA(*pte);
    800011b2:	00a7d513          	srli	a0,a5,0xa
    800011b6:	0532                	slli	a0,a0,0xc
  return pa;
    800011b8:	bfcd                	j	800011aa <walkaddr+0x2e>
    return 0;
    800011ba:	4501                	li	a0,0
    800011bc:	b7fd                	j	800011aa <walkaddr+0x2e>

00000000800011be <kvmpa>:
{
    800011be:	1101                	addi	sp,sp,-32
    800011c0:	ec06                	sd	ra,24(sp)
    800011c2:	e822                	sd	s0,16(sp)
    800011c4:	e426                	sd	s1,8(sp)
    800011c6:	1000                	addi	s0,sp,32
    800011c8:	85aa                	mv	a1,a0
  uint64 off = va % PGSIZE;
    800011ca:	1552                	slli	a0,a0,0x34
    800011cc:	03455493          	srli	s1,a0,0x34
  pte = walk(kernel_pagetable, va, 0);
    800011d0:	4601                	li	a2,0
    800011d2:	00027517          	auipc	a0,0x27
    800011d6:	e5e53503          	ld	a0,-418(a0) # 80028030 <kernel_pagetable>
    800011da:	00000097          	auipc	ra,0x0
    800011de:	e6e080e7          	jalr	-402(ra) # 80001048 <walk>
  if(pte == 0)
    800011e2:	cd09                	beqz	a0,800011fc <kvmpa+0x3e>
  if((*pte & PTE_V) == 0)
    800011e4:	6108                	ld	a0,0(a0)
    800011e6:	00157793          	andi	a5,a0,1
    800011ea:	c38d                	beqz	a5,8000120c <kvmpa+0x4e>
  pa = PTE2PA(*pte);
    800011ec:	8129                	srli	a0,a0,0xa
    800011ee:	0532                	slli	a0,a0,0xc
}
    800011f0:	9526                	add	a0,a0,s1
    800011f2:	60e2                	ld	ra,24(sp)
    800011f4:	6442                	ld	s0,16(sp)
    800011f6:	64a2                	ld	s1,8(sp)
    800011f8:	6105                	addi	sp,sp,32
    800011fa:	8082                	ret
    panic("kvmpa");
    800011fc:	00007517          	auipc	a0,0x7
    80001200:	12c50513          	addi	a0,a0,300 # 80008328 <userret+0x298>
    80001204:	fffff097          	auipc	ra,0xfffff
    80001208:	356080e7          	jalr	854(ra) # 8000055a <panic>
    panic("kvmpa");
    8000120c:	00007517          	auipc	a0,0x7
    80001210:	11c50513          	addi	a0,a0,284 # 80008328 <userret+0x298>
    80001214:	fffff097          	auipc	ra,0xfffff
    80001218:	346080e7          	jalr	838(ra) # 8000055a <panic>

000000008000121c <mappages>:
{
    8000121c:	715d                	addi	sp,sp,-80
    8000121e:	e486                	sd	ra,72(sp)
    80001220:	e0a2                	sd	s0,64(sp)
    80001222:	fc26                	sd	s1,56(sp)
    80001224:	f84a                	sd	s2,48(sp)
    80001226:	f44e                	sd	s3,40(sp)
    80001228:	f052                	sd	s4,32(sp)
    8000122a:	ec56                	sd	s5,24(sp)
    8000122c:	e85a                	sd	s6,16(sp)
    8000122e:	e45e                	sd	s7,8(sp)
    80001230:	0880                	addi	s0,sp,80
    80001232:	8aaa                	mv	s5,a0
    80001234:	8b3a                	mv	s6,a4
  a = PGROUNDDOWN(va);
    80001236:	777d                	lui	a4,0xfffff
    80001238:	00e5f7b3          	and	a5,a1,a4
  last = PGROUNDDOWN(va + size - 1);
    8000123c:	167d                	addi	a2,a2,-1
    8000123e:	00b609b3          	add	s3,a2,a1
    80001242:	00e9f9b3          	and	s3,s3,a4
  a = PGROUNDDOWN(va);
    80001246:	893e                	mv	s2,a5
    80001248:	40f68a33          	sub	s4,a3,a5
    a += PGSIZE;
    8000124c:	6b85                	lui	s7,0x1
    8000124e:	012a04b3          	add	s1,s4,s2
    if((pte = walk(pagetable, a, 1)) == 0)
    80001252:	4605                	li	a2,1
    80001254:	85ca                	mv	a1,s2
    80001256:	8556                	mv	a0,s5
    80001258:	00000097          	auipc	ra,0x0
    8000125c:	df0080e7          	jalr	-528(ra) # 80001048 <walk>
    80001260:	c51d                	beqz	a0,8000128e <mappages+0x72>
    if(*pte & PTE_V)
    80001262:	611c                	ld	a5,0(a0)
    80001264:	8b85                	andi	a5,a5,1
    80001266:	ef81                	bnez	a5,8000127e <mappages+0x62>
    *pte = PA2PTE(pa) | perm | PTE_V;
    80001268:	80b1                	srli	s1,s1,0xc
    8000126a:	04aa                	slli	s1,s1,0xa
    8000126c:	0164e4b3          	or	s1,s1,s6
    80001270:	0014e493          	ori	s1,s1,1
    80001274:	e104                	sd	s1,0(a0)
    if(a == last)
    80001276:	03390863          	beq	s2,s3,800012a6 <mappages+0x8a>
    a += PGSIZE;
    8000127a:	995e                	add	s2,s2,s7
    if((pte = walk(pagetable, a, 1)) == 0)
    8000127c:	bfc9                	j	8000124e <mappages+0x32>
      panic("remap");
    8000127e:	00007517          	auipc	a0,0x7
    80001282:	0b250513          	addi	a0,a0,178 # 80008330 <userret+0x2a0>
    80001286:	fffff097          	auipc	ra,0xfffff
    8000128a:	2d4080e7          	jalr	724(ra) # 8000055a <panic>
      return -1;
    8000128e:	557d                	li	a0,-1
}
    80001290:	60a6                	ld	ra,72(sp)
    80001292:	6406                	ld	s0,64(sp)
    80001294:	74e2                	ld	s1,56(sp)
    80001296:	7942                	ld	s2,48(sp)
    80001298:	79a2                	ld	s3,40(sp)
    8000129a:	7a02                	ld	s4,32(sp)
    8000129c:	6ae2                	ld	s5,24(sp)
    8000129e:	6b42                	ld	s6,16(sp)
    800012a0:	6ba2                	ld	s7,8(sp)
    800012a2:	6161                	addi	sp,sp,80
    800012a4:	8082                	ret
  return 0;
    800012a6:	4501                	li	a0,0
    800012a8:	b7e5                	j	80001290 <mappages+0x74>

00000000800012aa <kvmmap>:
{
    800012aa:	1141                	addi	sp,sp,-16
    800012ac:	e406                	sd	ra,8(sp)
    800012ae:	e022                	sd	s0,0(sp)
    800012b0:	0800                	addi	s0,sp,16
    800012b2:	8736                	mv	a4,a3
  if(mappages(kernel_pagetable, va, sz, pa, perm) != 0)
    800012b4:	86ae                	mv	a3,a1
    800012b6:	85aa                	mv	a1,a0
    800012b8:	00027517          	auipc	a0,0x27
    800012bc:	d7853503          	ld	a0,-648(a0) # 80028030 <kernel_pagetable>
    800012c0:	00000097          	auipc	ra,0x0
    800012c4:	f5c080e7          	jalr	-164(ra) # 8000121c <mappages>
    800012c8:	e509                	bnez	a0,800012d2 <kvmmap+0x28>
}
    800012ca:	60a2                	ld	ra,8(sp)
    800012cc:	6402                	ld	s0,0(sp)
    800012ce:	0141                	addi	sp,sp,16
    800012d0:	8082                	ret
    panic("kvmmap");
    800012d2:	00007517          	auipc	a0,0x7
    800012d6:	06650513          	addi	a0,a0,102 # 80008338 <userret+0x2a8>
    800012da:	fffff097          	auipc	ra,0xfffff
    800012de:	280080e7          	jalr	640(ra) # 8000055a <panic>

00000000800012e2 <kvminit>:
{
    800012e2:	1101                	addi	sp,sp,-32
    800012e4:	ec06                	sd	ra,24(sp)
    800012e6:	e822                	sd	s0,16(sp)
    800012e8:	e426                	sd	s1,8(sp)
    800012ea:	1000                	addi	s0,sp,32
  kernel_pagetable = (pagetable_t) kalloc();
    800012ec:	fffff097          	auipc	ra,0xfffff
    800012f0:	690080e7          	jalr	1680(ra) # 8000097c <kalloc>
    800012f4:	00027797          	auipc	a5,0x27
    800012f8:	d2a7be23          	sd	a0,-708(a5) # 80028030 <kernel_pagetable>
  memset(kernel_pagetable, 0, PGSIZE);
    800012fc:	6605                	lui	a2,0x1
    800012fe:	4581                	li	a1,0
    80001300:	00000097          	auipc	ra,0x0
    80001304:	a7e080e7          	jalr	-1410(ra) # 80000d7e <memset>
  kvmmap(UART0, UART0, PGSIZE, PTE_R | PTE_W);
    80001308:	4699                	li	a3,6
    8000130a:	6605                	lui	a2,0x1
    8000130c:	100005b7          	lui	a1,0x10000
    80001310:	10000537          	lui	a0,0x10000
    80001314:	00000097          	auipc	ra,0x0
    80001318:	f96080e7          	jalr	-106(ra) # 800012aa <kvmmap>
  kvmmap(VIRTION(0), VIRTION(0), PGSIZE, PTE_R | PTE_W);
    8000131c:	4699                	li	a3,6
    8000131e:	6605                	lui	a2,0x1
    80001320:	100015b7          	lui	a1,0x10001
    80001324:	10001537          	lui	a0,0x10001
    80001328:	00000097          	auipc	ra,0x0
    8000132c:	f82080e7          	jalr	-126(ra) # 800012aa <kvmmap>
  kvmmap(VIRTION(1), VIRTION(1), PGSIZE, PTE_R | PTE_W);
    80001330:	4699                	li	a3,6
    80001332:	6605                	lui	a2,0x1
    80001334:	100025b7          	lui	a1,0x10002
    80001338:	10002537          	lui	a0,0x10002
    8000133c:	00000097          	auipc	ra,0x0
    80001340:	f6e080e7          	jalr	-146(ra) # 800012aa <kvmmap>
  kvmmap(CLINT, CLINT, 0x10000, PTE_R | PTE_W);
    80001344:	4699                	li	a3,6
    80001346:	6641                	lui	a2,0x10
    80001348:	020005b7          	lui	a1,0x2000
    8000134c:	02000537          	lui	a0,0x2000
    80001350:	00000097          	auipc	ra,0x0
    80001354:	f5a080e7          	jalr	-166(ra) # 800012aa <kvmmap>
  kvmmap(PLIC, PLIC, 0x400000, PTE_R | PTE_W);
    80001358:	4699                	li	a3,6
    8000135a:	00400637          	lui	a2,0x400
    8000135e:	0c0005b7          	lui	a1,0xc000
    80001362:	0c000537          	lui	a0,0xc000
    80001366:	00000097          	auipc	ra,0x0
    8000136a:	f44080e7          	jalr	-188(ra) # 800012aa <kvmmap>
  kvmmap(KERNBASE, KERNBASE, (uint64)etext-KERNBASE, PTE_R | PTE_X);
    8000136e:	00008497          	auipc	s1,0x8
    80001372:	c9248493          	addi	s1,s1,-878 # 80009000 <initcode>
    80001376:	46a9                	li	a3,10
    80001378:	80008617          	auipc	a2,0x80008
    8000137c:	c8860613          	addi	a2,a2,-888 # 9000 <_entry-0x7fff7000>
    80001380:	4585                	li	a1,1
    80001382:	05fe                	slli	a1,a1,0x1f
    80001384:	852e                	mv	a0,a1
    80001386:	00000097          	auipc	ra,0x0
    8000138a:	f24080e7          	jalr	-220(ra) # 800012aa <kvmmap>
  kvmmap((uint64)etext, (uint64)etext, PHYSTOP-(uint64)etext, PTE_R | PTE_W);
    8000138e:	4699                	li	a3,6
    80001390:	4645                	li	a2,17
    80001392:	066e                	slli	a2,a2,0x1b
    80001394:	8e05                	sub	a2,a2,s1
    80001396:	85a6                	mv	a1,s1
    80001398:	8526                	mv	a0,s1
    8000139a:	00000097          	auipc	ra,0x0
    8000139e:	f10080e7          	jalr	-240(ra) # 800012aa <kvmmap>
  kvmmap(TRAMPOLINE, (uint64)trampoline, PGSIZE, PTE_R | PTE_X);
    800013a2:	46a9                	li	a3,10
    800013a4:	6605                	lui	a2,0x1
    800013a6:	00007597          	auipc	a1,0x7
    800013aa:	c5a58593          	addi	a1,a1,-934 # 80008000 <trampoline>
    800013ae:	04000537          	lui	a0,0x4000
    800013b2:	157d                	addi	a0,a0,-1
    800013b4:	0532                	slli	a0,a0,0xc
    800013b6:	00000097          	auipc	ra,0x0
    800013ba:	ef4080e7          	jalr	-268(ra) # 800012aa <kvmmap>
}
    800013be:	60e2                	ld	ra,24(sp)
    800013c0:	6442                	ld	s0,16(sp)
    800013c2:	64a2                	ld	s1,8(sp)
    800013c4:	6105                	addi	sp,sp,32
    800013c6:	8082                	ret

00000000800013c8 <uvmunmap>:
{
    800013c8:	715d                	addi	sp,sp,-80
    800013ca:	e486                	sd	ra,72(sp)
    800013cc:	e0a2                	sd	s0,64(sp)
    800013ce:	fc26                	sd	s1,56(sp)
    800013d0:	f84a                	sd	s2,48(sp)
    800013d2:	f44e                	sd	s3,40(sp)
    800013d4:	f052                	sd	s4,32(sp)
    800013d6:	ec56                	sd	s5,24(sp)
    800013d8:	e85a                	sd	s6,16(sp)
    800013da:	e45e                	sd	s7,8(sp)
    800013dc:	0880                	addi	s0,sp,80
    800013de:	8a2a                	mv	s4,a0
    800013e0:	8ab6                	mv	s5,a3
  a = PGROUNDDOWN(va);
    800013e2:	77fd                	lui	a5,0xfffff
    800013e4:	00f5f933          	and	s2,a1,a5
  last = PGROUNDDOWN(va + size - 1);
    800013e8:	167d                	addi	a2,a2,-1
    800013ea:	00b609b3          	add	s3,a2,a1
    800013ee:	00f9f9b3          	and	s3,s3,a5
    if(PTE_FLAGS(*pte) == PTE_V)
    800013f2:	4b05                	li	s6,1
    a += PGSIZE;
    800013f4:	6b85                	lui	s7,0x1
    800013f6:	a8b1                	j	80001452 <uvmunmap+0x8a>
      panic("uvmunmap: walk");
    800013f8:	00007517          	auipc	a0,0x7
    800013fc:	f4850513          	addi	a0,a0,-184 # 80008340 <userret+0x2b0>
    80001400:	fffff097          	auipc	ra,0xfffff
    80001404:	15a080e7          	jalr	346(ra) # 8000055a <panic>
      printf("va=%p pte=%p\n", a, *pte);
    80001408:	862a                	mv	a2,a0
    8000140a:	85ca                	mv	a1,s2
    8000140c:	00007517          	auipc	a0,0x7
    80001410:	f4450513          	addi	a0,a0,-188 # 80008350 <userret+0x2c0>
    80001414:	fffff097          	auipc	ra,0xfffff
    80001418:	1a0080e7          	jalr	416(ra) # 800005b4 <printf>
      panic("uvmunmap: not mapped");
    8000141c:	00007517          	auipc	a0,0x7
    80001420:	f4450513          	addi	a0,a0,-188 # 80008360 <userret+0x2d0>
    80001424:	fffff097          	auipc	ra,0xfffff
    80001428:	136080e7          	jalr	310(ra) # 8000055a <panic>
      panic("uvmunmap: not a leaf");
    8000142c:	00007517          	auipc	a0,0x7
    80001430:	f4c50513          	addi	a0,a0,-180 # 80008378 <userret+0x2e8>
    80001434:	fffff097          	auipc	ra,0xfffff
    80001438:	126080e7          	jalr	294(ra) # 8000055a <panic>
      pa = PTE2PA(*pte);
    8000143c:	8129                	srli	a0,a0,0xa
      kfree((void*)pa);
    8000143e:	0532                	slli	a0,a0,0xc
    80001440:	fffff097          	auipc	ra,0xfffff
    80001444:	440080e7          	jalr	1088(ra) # 80000880 <kfree>
    *pte = 0;
    80001448:	0004b023          	sd	zero,0(s1)
    if(a == last)
    8000144c:	03390763          	beq	s2,s3,8000147a <uvmunmap+0xb2>
    a += PGSIZE;
    80001450:	995e                	add	s2,s2,s7
    if((pte = walk(pagetable, a, 0)) == 0)
    80001452:	4601                	li	a2,0
    80001454:	85ca                	mv	a1,s2
    80001456:	8552                	mv	a0,s4
    80001458:	00000097          	auipc	ra,0x0
    8000145c:	bf0080e7          	jalr	-1040(ra) # 80001048 <walk>
    80001460:	84aa                	mv	s1,a0
    80001462:	d959                	beqz	a0,800013f8 <uvmunmap+0x30>
    if((*pte & PTE_V) == 0){
    80001464:	6108                	ld	a0,0(a0)
    80001466:	00157793          	andi	a5,a0,1
    8000146a:	dfd9                	beqz	a5,80001408 <uvmunmap+0x40>
    if(PTE_FLAGS(*pte) == PTE_V)
    8000146c:	3ff57793          	andi	a5,a0,1023
    80001470:	fb678ee3          	beq	a5,s6,8000142c <uvmunmap+0x64>
    if(do_free){
    80001474:	fc0a8ae3          	beqz	s5,80001448 <uvmunmap+0x80>
    80001478:	b7d1                	j	8000143c <uvmunmap+0x74>
}
    8000147a:	60a6                	ld	ra,72(sp)
    8000147c:	6406                	ld	s0,64(sp)
    8000147e:	74e2                	ld	s1,56(sp)
    80001480:	7942                	ld	s2,48(sp)
    80001482:	79a2                	ld	s3,40(sp)
    80001484:	7a02                	ld	s4,32(sp)
    80001486:	6ae2                	ld	s5,24(sp)
    80001488:	6b42                	ld	s6,16(sp)
    8000148a:	6ba2                	ld	s7,8(sp)
    8000148c:	6161                	addi	sp,sp,80
    8000148e:	8082                	ret

0000000080001490 <uvmcreate>:
{
    80001490:	1101                	addi	sp,sp,-32
    80001492:	ec06                	sd	ra,24(sp)
    80001494:	e822                	sd	s0,16(sp)
    80001496:	e426                	sd	s1,8(sp)
    80001498:	1000                	addi	s0,sp,32
  pagetable = (pagetable_t) kalloc();
    8000149a:	fffff097          	auipc	ra,0xfffff
    8000149e:	4e2080e7          	jalr	1250(ra) # 8000097c <kalloc>
  if(pagetable == 0)
    800014a2:	cd11                	beqz	a0,800014be <uvmcreate+0x2e>
    800014a4:	84aa                	mv	s1,a0
  memset(pagetable, 0, PGSIZE);
    800014a6:	6605                	lui	a2,0x1
    800014a8:	4581                	li	a1,0
    800014aa:	00000097          	auipc	ra,0x0
    800014ae:	8d4080e7          	jalr	-1836(ra) # 80000d7e <memset>
}
    800014b2:	8526                	mv	a0,s1
    800014b4:	60e2                	ld	ra,24(sp)
    800014b6:	6442                	ld	s0,16(sp)
    800014b8:	64a2                	ld	s1,8(sp)
    800014ba:	6105                	addi	sp,sp,32
    800014bc:	8082                	ret
    panic("uvmcreate: out of memory");
    800014be:	00007517          	auipc	a0,0x7
    800014c2:	ed250513          	addi	a0,a0,-302 # 80008390 <userret+0x300>
    800014c6:	fffff097          	auipc	ra,0xfffff
    800014ca:	094080e7          	jalr	148(ra) # 8000055a <panic>

00000000800014ce <uvminit>:
{
    800014ce:	7179                	addi	sp,sp,-48
    800014d0:	f406                	sd	ra,40(sp)
    800014d2:	f022                	sd	s0,32(sp)
    800014d4:	ec26                	sd	s1,24(sp)
    800014d6:	e84a                	sd	s2,16(sp)
    800014d8:	e44e                	sd	s3,8(sp)
    800014da:	e052                	sd	s4,0(sp)
    800014dc:	1800                	addi	s0,sp,48
  if(sz >= PGSIZE)
    800014de:	6785                	lui	a5,0x1
    800014e0:	04f67863          	bgeu	a2,a5,80001530 <uvminit+0x62>
    800014e4:	8a2a                	mv	s4,a0
    800014e6:	89ae                	mv	s3,a1
    800014e8:	84b2                	mv	s1,a2
  mem = kalloc();
    800014ea:	fffff097          	auipc	ra,0xfffff
    800014ee:	492080e7          	jalr	1170(ra) # 8000097c <kalloc>
    800014f2:	892a                	mv	s2,a0
  memset(mem, 0, PGSIZE);
    800014f4:	6605                	lui	a2,0x1
    800014f6:	4581                	li	a1,0
    800014f8:	00000097          	auipc	ra,0x0
    800014fc:	886080e7          	jalr	-1914(ra) # 80000d7e <memset>
  mappages(pagetable, 0, PGSIZE, (uint64)mem, PTE_W|PTE_R|PTE_X|PTE_U);
    80001500:	4779                	li	a4,30
    80001502:	86ca                	mv	a3,s2
    80001504:	6605                	lui	a2,0x1
    80001506:	4581                	li	a1,0
    80001508:	8552                	mv	a0,s4
    8000150a:	00000097          	auipc	ra,0x0
    8000150e:	d12080e7          	jalr	-750(ra) # 8000121c <mappages>
  memmove(mem, src, sz);
    80001512:	8626                	mv	a2,s1
    80001514:	85ce                	mv	a1,s3
    80001516:	854a                	mv	a0,s2
    80001518:	00000097          	auipc	ra,0x0
    8000151c:	8c6080e7          	jalr	-1850(ra) # 80000dde <memmove>
}
    80001520:	70a2                	ld	ra,40(sp)
    80001522:	7402                	ld	s0,32(sp)
    80001524:	64e2                	ld	s1,24(sp)
    80001526:	6942                	ld	s2,16(sp)
    80001528:	69a2                	ld	s3,8(sp)
    8000152a:	6a02                	ld	s4,0(sp)
    8000152c:	6145                	addi	sp,sp,48
    8000152e:	8082                	ret
    panic("inituvm: more than a page");
    80001530:	00007517          	auipc	a0,0x7
    80001534:	e8050513          	addi	a0,a0,-384 # 800083b0 <userret+0x320>
    80001538:	fffff097          	auipc	ra,0xfffff
    8000153c:	022080e7          	jalr	34(ra) # 8000055a <panic>

0000000080001540 <uvmdealloc>:
{
    80001540:	1101                	addi	sp,sp,-32
    80001542:	ec06                	sd	ra,24(sp)
    80001544:	e822                	sd	s0,16(sp)
    80001546:	e426                	sd	s1,8(sp)
    80001548:	1000                	addi	s0,sp,32
    return oldsz;
    8000154a:	84ae                	mv	s1,a1
  if(newsz >= oldsz)
    8000154c:	00b67d63          	bgeu	a2,a1,80001566 <uvmdealloc+0x26>
    80001550:	84b2                	mv	s1,a2
  uint64 newup = PGROUNDUP(newsz);
    80001552:	6785                	lui	a5,0x1
    80001554:	17fd                	addi	a5,a5,-1
    80001556:	00f60733          	add	a4,a2,a5
    8000155a:	76fd                	lui	a3,0xfffff
    8000155c:	8f75                	and	a4,a4,a3
  if(newup < PGROUNDUP(oldsz))
    8000155e:	97ae                	add	a5,a5,a1
    80001560:	8ff5                	and	a5,a5,a3
    80001562:	00f76863          	bltu	a4,a5,80001572 <uvmdealloc+0x32>
}
    80001566:	8526                	mv	a0,s1
    80001568:	60e2                	ld	ra,24(sp)
    8000156a:	6442                	ld	s0,16(sp)
    8000156c:	64a2                	ld	s1,8(sp)
    8000156e:	6105                	addi	sp,sp,32
    80001570:	8082                	ret
    uvmunmap(pagetable, newup, oldsz - newup, 1);
    80001572:	4685                	li	a3,1
    80001574:	40e58633          	sub	a2,a1,a4
    80001578:	85ba                	mv	a1,a4
    8000157a:	00000097          	auipc	ra,0x0
    8000157e:	e4e080e7          	jalr	-434(ra) # 800013c8 <uvmunmap>
    80001582:	b7d5                	j	80001566 <uvmdealloc+0x26>

0000000080001584 <uvmalloc>:
  if(newsz < oldsz)
    80001584:	0ab66163          	bltu	a2,a1,80001626 <uvmalloc+0xa2>
{
    80001588:	7139                	addi	sp,sp,-64
    8000158a:	fc06                	sd	ra,56(sp)
    8000158c:	f822                	sd	s0,48(sp)
    8000158e:	f426                	sd	s1,40(sp)
    80001590:	f04a                	sd	s2,32(sp)
    80001592:	ec4e                	sd	s3,24(sp)
    80001594:	e852                	sd	s4,16(sp)
    80001596:	e456                	sd	s5,8(sp)
    80001598:	0080                	addi	s0,sp,64
    8000159a:	8aaa                	mv	s5,a0
    8000159c:	8a32                	mv	s4,a2
  oldsz = PGROUNDUP(oldsz);
    8000159e:	6985                	lui	s3,0x1
    800015a0:	19fd                	addi	s3,s3,-1
    800015a2:	95ce                	add	a1,a1,s3
    800015a4:	79fd                	lui	s3,0xfffff
    800015a6:	0135f9b3          	and	s3,a1,s3
  for(; a < newsz; a += PGSIZE){
    800015aa:	08c9f063          	bgeu	s3,a2,8000162a <uvmalloc+0xa6>
  a = oldsz;
    800015ae:	894e                	mv	s2,s3
    mem = kalloc();
    800015b0:	fffff097          	auipc	ra,0xfffff
    800015b4:	3cc080e7          	jalr	972(ra) # 8000097c <kalloc>
    800015b8:	84aa                	mv	s1,a0
    if(mem == 0){
    800015ba:	c51d                	beqz	a0,800015e8 <uvmalloc+0x64>
    memset(mem, 0, PGSIZE);
    800015bc:	6605                	lui	a2,0x1
    800015be:	4581                	li	a1,0
    800015c0:	fffff097          	auipc	ra,0xfffff
    800015c4:	7be080e7          	jalr	1982(ra) # 80000d7e <memset>
    if(mappages(pagetable, a, PGSIZE, (uint64)mem, PTE_W|PTE_X|PTE_R|PTE_U) != 0){
    800015c8:	4779                	li	a4,30
    800015ca:	86a6                	mv	a3,s1
    800015cc:	6605                	lui	a2,0x1
    800015ce:	85ca                	mv	a1,s2
    800015d0:	8556                	mv	a0,s5
    800015d2:	00000097          	auipc	ra,0x0
    800015d6:	c4a080e7          	jalr	-950(ra) # 8000121c <mappages>
    800015da:	e905                	bnez	a0,8000160a <uvmalloc+0x86>
  for(; a < newsz; a += PGSIZE){
    800015dc:	6785                	lui	a5,0x1
    800015de:	993e                	add	s2,s2,a5
    800015e0:	fd4968e3          	bltu	s2,s4,800015b0 <uvmalloc+0x2c>
  return newsz;
    800015e4:	8552                	mv	a0,s4
    800015e6:	a809                	j	800015f8 <uvmalloc+0x74>
      uvmdealloc(pagetable, a, oldsz);
    800015e8:	864e                	mv	a2,s3
    800015ea:	85ca                	mv	a1,s2
    800015ec:	8556                	mv	a0,s5
    800015ee:	00000097          	auipc	ra,0x0
    800015f2:	f52080e7          	jalr	-174(ra) # 80001540 <uvmdealloc>
      return 0;
    800015f6:	4501                	li	a0,0
}
    800015f8:	70e2                	ld	ra,56(sp)
    800015fa:	7442                	ld	s0,48(sp)
    800015fc:	74a2                	ld	s1,40(sp)
    800015fe:	7902                	ld	s2,32(sp)
    80001600:	69e2                	ld	s3,24(sp)
    80001602:	6a42                	ld	s4,16(sp)
    80001604:	6aa2                	ld	s5,8(sp)
    80001606:	6121                	addi	sp,sp,64
    80001608:	8082                	ret
      kfree(mem);
    8000160a:	8526                	mv	a0,s1
    8000160c:	fffff097          	auipc	ra,0xfffff
    80001610:	274080e7          	jalr	628(ra) # 80000880 <kfree>
      uvmdealloc(pagetable, a, oldsz);
    80001614:	864e                	mv	a2,s3
    80001616:	85ca                	mv	a1,s2
    80001618:	8556                	mv	a0,s5
    8000161a:	00000097          	auipc	ra,0x0
    8000161e:	f26080e7          	jalr	-218(ra) # 80001540 <uvmdealloc>
      return 0;
    80001622:	4501                	li	a0,0
    80001624:	bfd1                	j	800015f8 <uvmalloc+0x74>
    return oldsz;
    80001626:	852e                	mv	a0,a1
}
    80001628:	8082                	ret
  return newsz;
    8000162a:	8532                	mv	a0,a2
    8000162c:	b7f1                	j	800015f8 <uvmalloc+0x74>

000000008000162e <uvmfree>:

// Free user memory pages,
// then free page-table pages.
void
uvmfree(pagetable_t pagetable, uint64 sz)
{
    8000162e:	1101                	addi	sp,sp,-32
    80001630:	ec06                	sd	ra,24(sp)
    80001632:	e822                	sd	s0,16(sp)
    80001634:	e426                	sd	s1,8(sp)
    80001636:	1000                	addi	s0,sp,32
    80001638:	84aa                	mv	s1,a0
    8000163a:	862e                	mv	a2,a1
  uvmunmap(pagetable, 0, sz, 1);
    8000163c:	4685                	li	a3,1
    8000163e:	4581                	li	a1,0
    80001640:	00000097          	auipc	ra,0x0
    80001644:	d88080e7          	jalr	-632(ra) # 800013c8 <uvmunmap>
  freewalk(pagetable);
    80001648:	8526                	mv	a0,s1
    8000164a:	00000097          	auipc	ra,0x0
    8000164e:	aa4080e7          	jalr	-1372(ra) # 800010ee <freewalk>
}
    80001652:	60e2                	ld	ra,24(sp)
    80001654:	6442                	ld	s0,16(sp)
    80001656:	64a2                	ld	s1,8(sp)
    80001658:	6105                	addi	sp,sp,32
    8000165a:	8082                	ret

000000008000165c <uvmcopy>:
  pte_t *pte;
  uint64 pa, i;
  uint flags;
  char *mem;

  for(i = 0; i < sz; i += PGSIZE){
    8000165c:	c671                	beqz	a2,80001728 <uvmcopy+0xcc>
{
    8000165e:	715d                	addi	sp,sp,-80
    80001660:	e486                	sd	ra,72(sp)
    80001662:	e0a2                	sd	s0,64(sp)
    80001664:	fc26                	sd	s1,56(sp)
    80001666:	f84a                	sd	s2,48(sp)
    80001668:	f44e                	sd	s3,40(sp)
    8000166a:	f052                	sd	s4,32(sp)
    8000166c:	ec56                	sd	s5,24(sp)
    8000166e:	e85a                	sd	s6,16(sp)
    80001670:	e45e                	sd	s7,8(sp)
    80001672:	0880                	addi	s0,sp,80
    80001674:	8b2a                	mv	s6,a0
    80001676:	8aae                	mv	s5,a1
    80001678:	8a32                	mv	s4,a2
  for(i = 0; i < sz; i += PGSIZE){
    8000167a:	4981                	li	s3,0
    if((pte = walk(old, i, 0)) == 0)
    8000167c:	4601                	li	a2,0
    8000167e:	85ce                	mv	a1,s3
    80001680:	855a                	mv	a0,s6
    80001682:	00000097          	auipc	ra,0x0
    80001686:	9c6080e7          	jalr	-1594(ra) # 80001048 <walk>
    8000168a:	c531                	beqz	a0,800016d6 <uvmcopy+0x7a>
      panic("uvmcopy: pte should exist");
    if((*pte & PTE_V) == 0)
    8000168c:	6118                	ld	a4,0(a0)
    8000168e:	00177793          	andi	a5,a4,1
    80001692:	cbb1                	beqz	a5,800016e6 <uvmcopy+0x8a>
      panic("uvmcopy: page not present");
    pa = PTE2PA(*pte);
    80001694:	00a75593          	srli	a1,a4,0xa
    80001698:	00c59b93          	slli	s7,a1,0xc
    flags = PTE_FLAGS(*pte);
    8000169c:	3ff77493          	andi	s1,a4,1023
    if((mem = kalloc()) == 0)
    800016a0:	fffff097          	auipc	ra,0xfffff
    800016a4:	2dc080e7          	jalr	732(ra) # 8000097c <kalloc>
    800016a8:	892a                	mv	s2,a0
    800016aa:	c939                	beqz	a0,80001700 <uvmcopy+0xa4>
      goto err;
    memmove(mem, (char*)pa, PGSIZE);
    800016ac:	6605                	lui	a2,0x1
    800016ae:	85de                	mv	a1,s7
    800016b0:	fffff097          	auipc	ra,0xfffff
    800016b4:	72e080e7          	jalr	1838(ra) # 80000dde <memmove>
    if(mappages(new, i, PGSIZE, (uint64)mem, flags) != 0){
    800016b8:	8726                	mv	a4,s1
    800016ba:	86ca                	mv	a3,s2
    800016bc:	6605                	lui	a2,0x1
    800016be:	85ce                	mv	a1,s3
    800016c0:	8556                	mv	a0,s5
    800016c2:	00000097          	auipc	ra,0x0
    800016c6:	b5a080e7          	jalr	-1190(ra) # 8000121c <mappages>
    800016ca:	e515                	bnez	a0,800016f6 <uvmcopy+0x9a>
  for(i = 0; i < sz; i += PGSIZE){
    800016cc:	6785                	lui	a5,0x1
    800016ce:	99be                	add	s3,s3,a5
    800016d0:	fb49e6e3          	bltu	s3,s4,8000167c <uvmcopy+0x20>
    800016d4:	a83d                	j	80001712 <uvmcopy+0xb6>
      panic("uvmcopy: pte should exist");
    800016d6:	00007517          	auipc	a0,0x7
    800016da:	cfa50513          	addi	a0,a0,-774 # 800083d0 <userret+0x340>
    800016de:	fffff097          	auipc	ra,0xfffff
    800016e2:	e7c080e7          	jalr	-388(ra) # 8000055a <panic>
      panic("uvmcopy: page not present");
    800016e6:	00007517          	auipc	a0,0x7
    800016ea:	d0a50513          	addi	a0,a0,-758 # 800083f0 <userret+0x360>
    800016ee:	fffff097          	auipc	ra,0xfffff
    800016f2:	e6c080e7          	jalr	-404(ra) # 8000055a <panic>
      kfree(mem);
    800016f6:	854a                	mv	a0,s2
    800016f8:	fffff097          	auipc	ra,0xfffff
    800016fc:	188080e7          	jalr	392(ra) # 80000880 <kfree>
    }
  }
  return 0;

 err:
  uvmunmap(new, 0, i, 1);
    80001700:	4685                	li	a3,1
    80001702:	864e                	mv	a2,s3
    80001704:	4581                	li	a1,0
    80001706:	8556                	mv	a0,s5
    80001708:	00000097          	auipc	ra,0x0
    8000170c:	cc0080e7          	jalr	-832(ra) # 800013c8 <uvmunmap>
  return -1;
    80001710:	557d                	li	a0,-1
}
    80001712:	60a6                	ld	ra,72(sp)
    80001714:	6406                	ld	s0,64(sp)
    80001716:	74e2                	ld	s1,56(sp)
    80001718:	7942                	ld	s2,48(sp)
    8000171a:	79a2                	ld	s3,40(sp)
    8000171c:	7a02                	ld	s4,32(sp)
    8000171e:	6ae2                	ld	s5,24(sp)
    80001720:	6b42                	ld	s6,16(sp)
    80001722:	6ba2                	ld	s7,8(sp)
    80001724:	6161                	addi	sp,sp,80
    80001726:	8082                	ret
  return 0;
    80001728:	4501                	li	a0,0
}
    8000172a:	8082                	ret

000000008000172c <uvmclear>:

// mark a PTE invalid for user access.
// used by exec for the user stack guard page.
void
uvmclear(pagetable_t pagetable, uint64 va)
{
    8000172c:	1141                	addi	sp,sp,-16
    8000172e:	e406                	sd	ra,8(sp)
    80001730:	e022                	sd	s0,0(sp)
    80001732:	0800                	addi	s0,sp,16
  pte_t *pte;
  
  pte = walk(pagetable, va, 0);
    80001734:	4601                	li	a2,0
    80001736:	00000097          	auipc	ra,0x0
    8000173a:	912080e7          	jalr	-1774(ra) # 80001048 <walk>
  if(pte == 0)
    8000173e:	c901                	beqz	a0,8000174e <uvmclear+0x22>
    panic("uvmclear");
  *pte &= ~PTE_U;
    80001740:	611c                	ld	a5,0(a0)
    80001742:	9bbd                	andi	a5,a5,-17
    80001744:	e11c                	sd	a5,0(a0)
}
    80001746:	60a2                	ld	ra,8(sp)
    80001748:	6402                	ld	s0,0(sp)
    8000174a:	0141                	addi	sp,sp,16
    8000174c:	8082                	ret
    panic("uvmclear");
    8000174e:	00007517          	auipc	a0,0x7
    80001752:	cc250513          	addi	a0,a0,-830 # 80008410 <userret+0x380>
    80001756:	fffff097          	auipc	ra,0xfffff
    8000175a:	e04080e7          	jalr	-508(ra) # 8000055a <panic>

000000008000175e <copyout>:
int
copyout(pagetable_t pagetable, uint64 dstva, char *src, uint64 len)
{
  uint64 n, va0, pa0;

  while(len > 0){
    8000175e:	c6bd                	beqz	a3,800017cc <copyout+0x6e>
{
    80001760:	715d                	addi	sp,sp,-80
    80001762:	e486                	sd	ra,72(sp)
    80001764:	e0a2                	sd	s0,64(sp)
    80001766:	fc26                	sd	s1,56(sp)
    80001768:	f84a                	sd	s2,48(sp)
    8000176a:	f44e                	sd	s3,40(sp)
    8000176c:	f052                	sd	s4,32(sp)
    8000176e:	ec56                	sd	s5,24(sp)
    80001770:	e85a                	sd	s6,16(sp)
    80001772:	e45e                	sd	s7,8(sp)
    80001774:	e062                	sd	s8,0(sp)
    80001776:	0880                	addi	s0,sp,80
    80001778:	8b2a                	mv	s6,a0
    8000177a:	8c2e                	mv	s8,a1
    8000177c:	8a32                	mv	s4,a2
    8000177e:	89b6                	mv	s3,a3
    va0 = PGROUNDDOWN(dstva);
    80001780:	7bfd                	lui	s7,0xfffff
    pa0 = walkaddr(pagetable, va0);
    if(pa0 == 0)
      return -1;
    n = PGSIZE - (dstva - va0);
    80001782:	6a85                	lui	s5,0x1
    80001784:	a015                	j	800017a8 <copyout+0x4a>
    if(n > len)
      n = len;
    memmove((void *)(pa0 + (dstva - va0)), src, n);
    80001786:	9562                	add	a0,a0,s8
    80001788:	0004861b          	sext.w	a2,s1
    8000178c:	85d2                	mv	a1,s4
    8000178e:	41250533          	sub	a0,a0,s2
    80001792:	fffff097          	auipc	ra,0xfffff
    80001796:	64c080e7          	jalr	1612(ra) # 80000dde <memmove>

    len -= n;
    8000179a:	409989b3          	sub	s3,s3,s1
    src += n;
    8000179e:	9a26                	add	s4,s4,s1
    dstva = va0 + PGSIZE;
    800017a0:	01590c33          	add	s8,s2,s5
  while(len > 0){
    800017a4:	02098263          	beqz	s3,800017c8 <copyout+0x6a>
    va0 = PGROUNDDOWN(dstva);
    800017a8:	017c7933          	and	s2,s8,s7
    pa0 = walkaddr(pagetable, va0);
    800017ac:	85ca                	mv	a1,s2
    800017ae:	855a                	mv	a0,s6
    800017b0:	00000097          	auipc	ra,0x0
    800017b4:	9cc080e7          	jalr	-1588(ra) # 8000117c <walkaddr>
    if(pa0 == 0)
    800017b8:	cd01                	beqz	a0,800017d0 <copyout+0x72>
    n = PGSIZE - (dstva - va0);
    800017ba:	418904b3          	sub	s1,s2,s8
    800017be:	94d6                	add	s1,s1,s5
    if(n > len)
    800017c0:	fc99f3e3          	bgeu	s3,s1,80001786 <copyout+0x28>
    800017c4:	84ce                	mv	s1,s3
    800017c6:	b7c1                	j	80001786 <copyout+0x28>
  }
  return 0;
    800017c8:	4501                	li	a0,0
    800017ca:	a021                	j	800017d2 <copyout+0x74>
    800017cc:	4501                	li	a0,0
}
    800017ce:	8082                	ret
      return -1;
    800017d0:	557d                	li	a0,-1
}
    800017d2:	60a6                	ld	ra,72(sp)
    800017d4:	6406                	ld	s0,64(sp)
    800017d6:	74e2                	ld	s1,56(sp)
    800017d8:	7942                	ld	s2,48(sp)
    800017da:	79a2                	ld	s3,40(sp)
    800017dc:	7a02                	ld	s4,32(sp)
    800017de:	6ae2                	ld	s5,24(sp)
    800017e0:	6b42                	ld	s6,16(sp)
    800017e2:	6ba2                	ld	s7,8(sp)
    800017e4:	6c02                	ld	s8,0(sp)
    800017e6:	6161                	addi	sp,sp,80
    800017e8:	8082                	ret

00000000800017ea <copyin>:
int
copyin(pagetable_t pagetable, char *dst, uint64 srcva, uint64 len)
{
  uint64 n, va0, pa0;

  while(len > 0){
    800017ea:	c6bd                	beqz	a3,80001858 <copyin+0x6e>
{
    800017ec:	715d                	addi	sp,sp,-80
    800017ee:	e486                	sd	ra,72(sp)
    800017f0:	e0a2                	sd	s0,64(sp)
    800017f2:	fc26                	sd	s1,56(sp)
    800017f4:	f84a                	sd	s2,48(sp)
    800017f6:	f44e                	sd	s3,40(sp)
    800017f8:	f052                	sd	s4,32(sp)
    800017fa:	ec56                	sd	s5,24(sp)
    800017fc:	e85a                	sd	s6,16(sp)
    800017fe:	e45e                	sd	s7,8(sp)
    80001800:	e062                	sd	s8,0(sp)
    80001802:	0880                	addi	s0,sp,80
    80001804:	8b2a                	mv	s6,a0
    80001806:	8a2e                	mv	s4,a1
    80001808:	8c32                	mv	s8,a2
    8000180a:	89b6                	mv	s3,a3
    va0 = PGROUNDDOWN(srcva);
    8000180c:	7bfd                	lui	s7,0xfffff
    pa0 = walkaddr(pagetable, va0);
    if(pa0 == 0)
      return -1;
    n = PGSIZE - (srcva - va0);
    8000180e:	6a85                	lui	s5,0x1
    80001810:	a015                	j	80001834 <copyin+0x4a>
    if(n > len)
      n = len;
    memmove(dst, (void *)(pa0 + (srcva - va0)), n);
    80001812:	9562                	add	a0,a0,s8
    80001814:	0004861b          	sext.w	a2,s1
    80001818:	412505b3          	sub	a1,a0,s2
    8000181c:	8552                	mv	a0,s4
    8000181e:	fffff097          	auipc	ra,0xfffff
    80001822:	5c0080e7          	jalr	1472(ra) # 80000dde <memmove>

    len -= n;
    80001826:	409989b3          	sub	s3,s3,s1
    dst += n;
    8000182a:	9a26                	add	s4,s4,s1
    srcva = va0 + PGSIZE;
    8000182c:	01590c33          	add	s8,s2,s5
  while(len > 0){
    80001830:	02098263          	beqz	s3,80001854 <copyin+0x6a>
    va0 = PGROUNDDOWN(srcva);
    80001834:	017c7933          	and	s2,s8,s7
    pa0 = walkaddr(pagetable, va0);
    80001838:	85ca                	mv	a1,s2
    8000183a:	855a                	mv	a0,s6
    8000183c:	00000097          	auipc	ra,0x0
    80001840:	940080e7          	jalr	-1728(ra) # 8000117c <walkaddr>
    if(pa0 == 0)
    80001844:	cd01                	beqz	a0,8000185c <copyin+0x72>
    n = PGSIZE - (srcva - va0);
    80001846:	418904b3          	sub	s1,s2,s8
    8000184a:	94d6                	add	s1,s1,s5
    if(n > len)
    8000184c:	fc99f3e3          	bgeu	s3,s1,80001812 <copyin+0x28>
    80001850:	84ce                	mv	s1,s3
    80001852:	b7c1                	j	80001812 <copyin+0x28>
  }
  return 0;
    80001854:	4501                	li	a0,0
    80001856:	a021                	j	8000185e <copyin+0x74>
    80001858:	4501                	li	a0,0
}
    8000185a:	8082                	ret
      return -1;
    8000185c:	557d                	li	a0,-1
}
    8000185e:	60a6                	ld	ra,72(sp)
    80001860:	6406                	ld	s0,64(sp)
    80001862:	74e2                	ld	s1,56(sp)
    80001864:	7942                	ld	s2,48(sp)
    80001866:	79a2                	ld	s3,40(sp)
    80001868:	7a02                	ld	s4,32(sp)
    8000186a:	6ae2                	ld	s5,24(sp)
    8000186c:	6b42                	ld	s6,16(sp)
    8000186e:	6ba2                	ld	s7,8(sp)
    80001870:	6c02                	ld	s8,0(sp)
    80001872:	6161                	addi	sp,sp,80
    80001874:	8082                	ret

0000000080001876 <copyinstr>:
copyinstr(pagetable_t pagetable, char *dst, uint64 srcva, uint64 max)
{
  uint64 n, va0, pa0;
  int got_null = 0;

  while(got_null == 0 && max > 0){
    80001876:	c6c5                	beqz	a3,8000191e <copyinstr+0xa8>
{
    80001878:	715d                	addi	sp,sp,-80
    8000187a:	e486                	sd	ra,72(sp)
    8000187c:	e0a2                	sd	s0,64(sp)
    8000187e:	fc26                	sd	s1,56(sp)
    80001880:	f84a                	sd	s2,48(sp)
    80001882:	f44e                	sd	s3,40(sp)
    80001884:	f052                	sd	s4,32(sp)
    80001886:	ec56                	sd	s5,24(sp)
    80001888:	e85a                	sd	s6,16(sp)
    8000188a:	e45e                	sd	s7,8(sp)
    8000188c:	0880                	addi	s0,sp,80
    8000188e:	8a2a                	mv	s4,a0
    80001890:	8b2e                	mv	s6,a1
    80001892:	8bb2                	mv	s7,a2
    80001894:	84b6                	mv	s1,a3
    va0 = PGROUNDDOWN(srcva);
    80001896:	7afd                	lui	s5,0xfffff
    pa0 = walkaddr(pagetable, va0);
    if(pa0 == 0)
      return -1;
    n = PGSIZE - (srcva - va0);
    80001898:	6985                	lui	s3,0x1
    8000189a:	a035                	j	800018c6 <copyinstr+0x50>
      n = max;

    char *p = (char *) (pa0 + (srcva - va0));
    while(n > 0){
      if(*p == '\0'){
        *dst = '\0';
    8000189c:	00078023          	sb	zero,0(a5) # 1000 <_entry-0x7ffff000>
    800018a0:	4785                	li	a5,1
      dst++;
    }

    srcva = va0 + PGSIZE;
  }
  if(got_null){
    800018a2:	0017b793          	seqz	a5,a5
    800018a6:	40f00533          	neg	a0,a5
    return 0;
  } else {
    return -1;
  }
}
    800018aa:	60a6                	ld	ra,72(sp)
    800018ac:	6406                	ld	s0,64(sp)
    800018ae:	74e2                	ld	s1,56(sp)
    800018b0:	7942                	ld	s2,48(sp)
    800018b2:	79a2                	ld	s3,40(sp)
    800018b4:	7a02                	ld	s4,32(sp)
    800018b6:	6ae2                	ld	s5,24(sp)
    800018b8:	6b42                	ld	s6,16(sp)
    800018ba:	6ba2                	ld	s7,8(sp)
    800018bc:	6161                	addi	sp,sp,80
    800018be:	8082                	ret
    srcva = va0 + PGSIZE;
    800018c0:	01390bb3          	add	s7,s2,s3
  while(got_null == 0 && max > 0){
    800018c4:	c8a9                	beqz	s1,80001916 <copyinstr+0xa0>
    va0 = PGROUNDDOWN(srcva);
    800018c6:	015bf933          	and	s2,s7,s5
    pa0 = walkaddr(pagetable, va0);
    800018ca:	85ca                	mv	a1,s2
    800018cc:	8552                	mv	a0,s4
    800018ce:	00000097          	auipc	ra,0x0
    800018d2:	8ae080e7          	jalr	-1874(ra) # 8000117c <walkaddr>
    if(pa0 == 0)
    800018d6:	c131                	beqz	a0,8000191a <copyinstr+0xa4>
    n = PGSIZE - (srcva - va0);
    800018d8:	41790833          	sub	a6,s2,s7
    800018dc:	984e                	add	a6,a6,s3
    if(n > max)
    800018de:	0104f363          	bgeu	s1,a6,800018e4 <copyinstr+0x6e>
    800018e2:	8826                	mv	a6,s1
    char *p = (char *) (pa0 + (srcva - va0));
    800018e4:	955e                	add	a0,a0,s7
    800018e6:	41250533          	sub	a0,a0,s2
    while(n > 0){
    800018ea:	fc080be3          	beqz	a6,800018c0 <copyinstr+0x4a>
    800018ee:	985a                	add	a6,a6,s6
    800018f0:	87da                	mv	a5,s6
      if(*p == '\0'){
    800018f2:	41650633          	sub	a2,a0,s6
    800018f6:	14fd                	addi	s1,s1,-1
    800018f8:	9b26                	add	s6,s6,s1
    800018fa:	00f60733          	add	a4,a2,a5
    800018fe:	00074703          	lbu	a4,0(a4) # fffffffffffff000 <end+0xffffffff7ffd6fa4>
    80001902:	df49                	beqz	a4,8000189c <copyinstr+0x26>
        *dst = *p;
    80001904:	00e78023          	sb	a4,0(a5)
      --max;
    80001908:	40fb04b3          	sub	s1,s6,a5
      dst++;
    8000190c:	0785                	addi	a5,a5,1
    while(n > 0){
    8000190e:	ff0796e3          	bne	a5,a6,800018fa <copyinstr+0x84>
      dst++;
    80001912:	8b42                	mv	s6,a6
    80001914:	b775                	j	800018c0 <copyinstr+0x4a>
    80001916:	4781                	li	a5,0
    80001918:	b769                	j	800018a2 <copyinstr+0x2c>
      return -1;
    8000191a:	557d                	li	a0,-1
    8000191c:	b779                	j	800018aa <copyinstr+0x34>
  int got_null = 0;
    8000191e:	4781                	li	a5,0
  if(got_null){
    80001920:	0017b793          	seqz	a5,a5
    80001924:	40f00533          	neg	a0,a5
}
    80001928:	8082                	ret

000000008000192a <wakeup1>:

// Wake up p if it is sleeping in wait(); used by exit().
// Caller must hold p->lock.
static void
wakeup1(struct proc *p)
{
    8000192a:	1101                	addi	sp,sp,-32
    8000192c:	ec06                	sd	ra,24(sp)
    8000192e:	e822                	sd	s0,16(sp)
    80001930:	e426                	sd	s1,8(sp)
    80001932:	1000                	addi	s0,sp,32
    80001934:	84aa                	mv	s1,a0
  if(!holding(&p->lock))
    80001936:	fffff097          	auipc	ra,0xfffff
    8000193a:	0fc080e7          	jalr	252(ra) # 80000a32 <holding>
    8000193e:	c909                	beqz	a0,80001950 <wakeup1+0x26>
    panic("wakeup1");
  if(p->chan == p && p->state == SLEEPING) {
    80001940:	789c                	ld	a5,48(s1)
    80001942:	00978f63          	beq	a5,s1,80001960 <wakeup1+0x36>
    p->state = RUNNABLE;
  }
}
    80001946:	60e2                	ld	ra,24(sp)
    80001948:	6442                	ld	s0,16(sp)
    8000194a:	64a2                	ld	s1,8(sp)
    8000194c:	6105                	addi	sp,sp,32
    8000194e:	8082                	ret
    panic("wakeup1");
    80001950:	00007517          	auipc	a0,0x7
    80001954:	ad050513          	addi	a0,a0,-1328 # 80008420 <userret+0x390>
    80001958:	fffff097          	auipc	ra,0xfffff
    8000195c:	c02080e7          	jalr	-1022(ra) # 8000055a <panic>
  if(p->chan == p && p->state == SLEEPING) {
    80001960:	5098                	lw	a4,32(s1)
    80001962:	4785                	li	a5,1
    80001964:	fef711e3          	bne	a4,a5,80001946 <wakeup1+0x1c>
    p->state = RUNNABLE;
    80001968:	4789                	li	a5,2
    8000196a:	d09c                	sw	a5,32(s1)
}
    8000196c:	bfe9                	j	80001946 <wakeup1+0x1c>

000000008000196e <procinit>:
{
    8000196e:	715d                	addi	sp,sp,-80
    80001970:	e486                	sd	ra,72(sp)
    80001972:	e0a2                	sd	s0,64(sp)
    80001974:	fc26                	sd	s1,56(sp)
    80001976:	f84a                	sd	s2,48(sp)
    80001978:	f44e                	sd	s3,40(sp)
    8000197a:	f052                	sd	s4,32(sp)
    8000197c:	ec56                	sd	s5,24(sp)
    8000197e:	e85a                	sd	s6,16(sp)
    80001980:	e45e                	sd	s7,8(sp)
    80001982:	0880                	addi	s0,sp,80
  initlock(&pid_lock, "nextpid");
    80001984:	00007597          	auipc	a1,0x7
    80001988:	aa458593          	addi	a1,a1,-1372 # 80008428 <userret+0x398>
    8000198c:	00013517          	auipc	a0,0x13
    80001990:	eb450513          	addi	a0,a0,-332 # 80014840 <pid_lock>
    80001994:	fffff097          	auipc	ra,0xfffff
    80001998:	048080e7          	jalr	72(ra) # 800009dc <initlock>
  for(p = proc; p < &proc[NPROC]; p++) {
    8000199c:	00013917          	auipc	s2,0x13
    800019a0:	2c490913          	addi	s2,s2,708 # 80014c60 <proc>
      initlock(&p->lock, "proc");
    800019a4:	00007a17          	auipc	s4,0x7
    800019a8:	a8ca0a13          	addi	s4,s4,-1396 # 80008430 <userret+0x3a0>
      uint64 va = KSTACK((int) (p - proc));
    800019ac:	8bca                	mv	s7,s2
    800019ae:	00007b17          	auipc	s6,0x7
    800019b2:	572b0b13          	addi	s6,s6,1394 # 80008f20 <syscalls+0xb8>
    800019b6:	040009b7          	lui	s3,0x4000
    800019ba:	19fd                	addi	s3,s3,-1
    800019bc:	09b2                	slli	s3,s3,0xc
  for(p = proc; p < &proc[NPROC]; p++) {
    800019be:	00014a97          	auipc	s5,0x14
    800019c2:	102a8a93          	addi	s5,s5,258 # 80015ac0 <tickslock>
      initlock(&p->lock, "proc");
    800019c6:	85d2                	mv	a1,s4
    800019c8:	854a                	mv	a0,s2
    800019ca:	fffff097          	auipc	ra,0xfffff
    800019ce:	012080e7          	jalr	18(ra) # 800009dc <initlock>
      char *pa = kalloc();
    800019d2:	fffff097          	auipc	ra,0xfffff
    800019d6:	faa080e7          	jalr	-86(ra) # 8000097c <kalloc>
    800019da:	85aa                	mv	a1,a0
      if(pa == 0)
    800019dc:	c929                	beqz	a0,80001a2e <procinit+0xc0>
      uint64 va = KSTACK((int) (p - proc));
    800019de:	417904b3          	sub	s1,s2,s7
    800019e2:	8491                	srai	s1,s1,0x4
    800019e4:	000b3783          	ld	a5,0(s6)
    800019e8:	02f484b3          	mul	s1,s1,a5
    800019ec:	2485                	addiw	s1,s1,1
    800019ee:	00d4949b          	slliw	s1,s1,0xd
    800019f2:	409984b3          	sub	s1,s3,s1
      kvmmap(va, (uint64)pa, PGSIZE, PTE_R | PTE_W);
    800019f6:	4699                	li	a3,6
    800019f8:	6605                	lui	a2,0x1
    800019fa:	8526                	mv	a0,s1
    800019fc:	00000097          	auipc	ra,0x0
    80001a00:	8ae080e7          	jalr	-1874(ra) # 800012aa <kvmmap>
      p->kstack = va;
    80001a04:	04993423          	sd	s1,72(s2)
  for(p = proc; p < &proc[NPROC]; p++) {
    80001a08:	17090913          	addi	s2,s2,368
    80001a0c:	fb591de3          	bne	s2,s5,800019c6 <procinit+0x58>
  kvminithart();
    80001a10:	fffff097          	auipc	ra,0xfffff
    80001a14:	748080e7          	jalr	1864(ra) # 80001158 <kvminithart>
}
    80001a18:	60a6                	ld	ra,72(sp)
    80001a1a:	6406                	ld	s0,64(sp)
    80001a1c:	74e2                	ld	s1,56(sp)
    80001a1e:	7942                	ld	s2,48(sp)
    80001a20:	79a2                	ld	s3,40(sp)
    80001a22:	7a02                	ld	s4,32(sp)
    80001a24:	6ae2                	ld	s5,24(sp)
    80001a26:	6b42                	ld	s6,16(sp)
    80001a28:	6ba2                	ld	s7,8(sp)
    80001a2a:	6161                	addi	sp,sp,80
    80001a2c:	8082                	ret
        panic("kalloc");
    80001a2e:	00007517          	auipc	a0,0x7
    80001a32:	a0a50513          	addi	a0,a0,-1526 # 80008438 <userret+0x3a8>
    80001a36:	fffff097          	auipc	ra,0xfffff
    80001a3a:	b24080e7          	jalr	-1244(ra) # 8000055a <panic>

0000000080001a3e <cpuid>:
{
    80001a3e:	1141                	addi	sp,sp,-16
    80001a40:	e422                	sd	s0,8(sp)
    80001a42:	0800                	addi	s0,sp,16
  asm volatile("mv %0, tp" : "=r" (x) );
    80001a44:	8512                	mv	a0,tp
}
    80001a46:	2501                	sext.w	a0,a0
    80001a48:	6422                	ld	s0,8(sp)
    80001a4a:	0141                	addi	sp,sp,16
    80001a4c:	8082                	ret

0000000080001a4e <mycpu>:
mycpu(void) {
    80001a4e:	1141                	addi	sp,sp,-16
    80001a50:	e422                	sd	s0,8(sp)
    80001a52:	0800                	addi	s0,sp,16
    80001a54:	8792                	mv	a5,tp
  struct cpu *c = &cpus[id];
    80001a56:	2781                	sext.w	a5,a5
    80001a58:	079e                	slli	a5,a5,0x7
}
    80001a5a:	00013517          	auipc	a0,0x13
    80001a5e:	e0650513          	addi	a0,a0,-506 # 80014860 <cpus>
    80001a62:	953e                	add	a0,a0,a5
    80001a64:	6422                	ld	s0,8(sp)
    80001a66:	0141                	addi	sp,sp,16
    80001a68:	8082                	ret

0000000080001a6a <myproc>:
myproc(void) {
    80001a6a:	1101                	addi	sp,sp,-32
    80001a6c:	ec06                	sd	ra,24(sp)
    80001a6e:	e822                	sd	s0,16(sp)
    80001a70:	e426                	sd	s1,8(sp)
    80001a72:	1000                	addi	s0,sp,32
  push_off();
    80001a74:	fffff097          	auipc	ra,0xfffff
    80001a78:	fec080e7          	jalr	-20(ra) # 80000a60 <push_off>
    80001a7c:	8792                	mv	a5,tp
  struct proc *p = c->proc;
    80001a7e:	2781                	sext.w	a5,a5
    80001a80:	079e                	slli	a5,a5,0x7
    80001a82:	00013717          	auipc	a4,0x13
    80001a86:	dbe70713          	addi	a4,a4,-578 # 80014840 <pid_lock>
    80001a8a:	97ba                	add	a5,a5,a4
    80001a8c:	7384                	ld	s1,32(a5)
  pop_off();
    80001a8e:	fffff097          	auipc	ra,0xfffff
    80001a92:	092080e7          	jalr	146(ra) # 80000b20 <pop_off>
}
    80001a96:	8526                	mv	a0,s1
    80001a98:	60e2                	ld	ra,24(sp)
    80001a9a:	6442                	ld	s0,16(sp)
    80001a9c:	64a2                	ld	s1,8(sp)
    80001a9e:	6105                	addi	sp,sp,32
    80001aa0:	8082                	ret

0000000080001aa2 <forkret>:
{
    80001aa2:	1141                	addi	sp,sp,-16
    80001aa4:	e406                	sd	ra,8(sp)
    80001aa6:	e022                	sd	s0,0(sp)
    80001aa8:	0800                	addi	s0,sp,16
  release(&myproc()->lock);
    80001aaa:	00000097          	auipc	ra,0x0
    80001aae:	fc0080e7          	jalr	-64(ra) # 80001a6a <myproc>
    80001ab2:	fffff097          	auipc	ra,0xfffff
    80001ab6:	0ce080e7          	jalr	206(ra) # 80000b80 <release>
  if (first) {
    80001aba:	00007797          	auipc	a5,0x7
    80001abe:	57a7a783          	lw	a5,1402(a5) # 80009034 <first.1745>
    80001ac2:	eb89                	bnez	a5,80001ad4 <forkret+0x32>
  usertrapret();
    80001ac4:	00001097          	auipc	ra,0x1
    80001ac8:	c60080e7          	jalr	-928(ra) # 80002724 <usertrapret>
}
    80001acc:	60a2                	ld	ra,8(sp)
    80001ace:	6402                	ld	s0,0(sp)
    80001ad0:	0141                	addi	sp,sp,16
    80001ad2:	8082                	ret
    first = 0;
    80001ad4:	00007797          	auipc	a5,0x7
    80001ad8:	5607a023          	sw	zero,1376(a5) # 80009034 <first.1745>
    fsinit(minor(ROOTDEV));
    80001adc:	4501                	li	a0,0
    80001ade:	00002097          	auipc	ra,0x2
    80001ae2:	9a0080e7          	jalr	-1632(ra) # 8000347e <fsinit>
    80001ae6:	bff9                	j	80001ac4 <forkret+0x22>

0000000080001ae8 <allocpid>:
allocpid() {
    80001ae8:	1101                	addi	sp,sp,-32
    80001aea:	ec06                	sd	ra,24(sp)
    80001aec:	e822                	sd	s0,16(sp)
    80001aee:	e426                	sd	s1,8(sp)
    80001af0:	e04a                	sd	s2,0(sp)
    80001af2:	1000                	addi	s0,sp,32
  acquire(&pid_lock);
    80001af4:	00013917          	auipc	s2,0x13
    80001af8:	d4c90913          	addi	s2,s2,-692 # 80014840 <pid_lock>
    80001afc:	854a                	mv	a0,s2
    80001afe:	fffff097          	auipc	ra,0xfffff
    80001b02:	fb2080e7          	jalr	-78(ra) # 80000ab0 <acquire>
  pid = nextpid;
    80001b06:	00007797          	auipc	a5,0x7
    80001b0a:	53278793          	addi	a5,a5,1330 # 80009038 <nextpid>
    80001b0e:	4384                	lw	s1,0(a5)
  nextpid = nextpid + 1;
    80001b10:	0014871b          	addiw	a4,s1,1
    80001b14:	c398                	sw	a4,0(a5)
  release(&pid_lock);
    80001b16:	854a                	mv	a0,s2
    80001b18:	fffff097          	auipc	ra,0xfffff
    80001b1c:	068080e7          	jalr	104(ra) # 80000b80 <release>
}
    80001b20:	8526                	mv	a0,s1
    80001b22:	60e2                	ld	ra,24(sp)
    80001b24:	6442                	ld	s0,16(sp)
    80001b26:	64a2                	ld	s1,8(sp)
    80001b28:	6902                	ld	s2,0(sp)
    80001b2a:	6105                	addi	sp,sp,32
    80001b2c:	8082                	ret

0000000080001b2e <proc_pagetable>:
{
    80001b2e:	1101                	addi	sp,sp,-32
    80001b30:	ec06                	sd	ra,24(sp)
    80001b32:	e822                	sd	s0,16(sp)
    80001b34:	e426                	sd	s1,8(sp)
    80001b36:	e04a                	sd	s2,0(sp)
    80001b38:	1000                	addi	s0,sp,32
    80001b3a:	892a                	mv	s2,a0
  pagetable = uvmcreate();
    80001b3c:	00000097          	auipc	ra,0x0
    80001b40:	954080e7          	jalr	-1708(ra) # 80001490 <uvmcreate>
    80001b44:	84aa                	mv	s1,a0
  mappages(pagetable, TRAMPOLINE, PGSIZE,
    80001b46:	4729                	li	a4,10
    80001b48:	00006697          	auipc	a3,0x6
    80001b4c:	4b868693          	addi	a3,a3,1208 # 80008000 <trampoline>
    80001b50:	6605                	lui	a2,0x1
    80001b52:	040005b7          	lui	a1,0x4000
    80001b56:	15fd                	addi	a1,a1,-1
    80001b58:	05b2                	slli	a1,a1,0xc
    80001b5a:	fffff097          	auipc	ra,0xfffff
    80001b5e:	6c2080e7          	jalr	1730(ra) # 8000121c <mappages>
  mappages(pagetable, TRAPFRAME, PGSIZE,
    80001b62:	4719                	li	a4,6
    80001b64:	06093683          	ld	a3,96(s2)
    80001b68:	6605                	lui	a2,0x1
    80001b6a:	020005b7          	lui	a1,0x2000
    80001b6e:	15fd                	addi	a1,a1,-1
    80001b70:	05b6                	slli	a1,a1,0xd
    80001b72:	8526                	mv	a0,s1
    80001b74:	fffff097          	auipc	ra,0xfffff
    80001b78:	6a8080e7          	jalr	1704(ra) # 8000121c <mappages>
}
    80001b7c:	8526                	mv	a0,s1
    80001b7e:	60e2                	ld	ra,24(sp)
    80001b80:	6442                	ld	s0,16(sp)
    80001b82:	64a2                	ld	s1,8(sp)
    80001b84:	6902                	ld	s2,0(sp)
    80001b86:	6105                	addi	sp,sp,32
    80001b88:	8082                	ret

0000000080001b8a <allocproc>:
{
    80001b8a:	1101                	addi	sp,sp,-32
    80001b8c:	ec06                	sd	ra,24(sp)
    80001b8e:	e822                	sd	s0,16(sp)
    80001b90:	e426                	sd	s1,8(sp)
    80001b92:	e04a                	sd	s2,0(sp)
    80001b94:	1000                	addi	s0,sp,32
  for(p = proc; p < &proc[NPROC]; p++) {
    80001b96:	00013497          	auipc	s1,0x13
    80001b9a:	0ca48493          	addi	s1,s1,202 # 80014c60 <proc>
    80001b9e:	00014917          	auipc	s2,0x14
    80001ba2:	f2290913          	addi	s2,s2,-222 # 80015ac0 <tickslock>
    acquire(&p->lock);
    80001ba6:	8526                	mv	a0,s1
    80001ba8:	fffff097          	auipc	ra,0xfffff
    80001bac:	f08080e7          	jalr	-248(ra) # 80000ab0 <acquire>
    if(p->state == UNUSED) {
    80001bb0:	509c                	lw	a5,32(s1)
    80001bb2:	c395                	beqz	a5,80001bd6 <allocproc+0x4c>
      release(&p->lock);
    80001bb4:	8526                	mv	a0,s1
    80001bb6:	fffff097          	auipc	ra,0xfffff
    80001bba:	fca080e7          	jalr	-54(ra) # 80000b80 <release>
  for(p = proc; p < &proc[NPROC]; p++) {
    80001bbe:	17048493          	addi	s1,s1,368
    80001bc2:	ff2492e3          	bne	s1,s2,80001ba6 <allocproc+0x1c>
  return 0;
    80001bc6:	4481                	li	s1,0
}
    80001bc8:	8526                	mv	a0,s1
    80001bca:	60e2                	ld	ra,24(sp)
    80001bcc:	6442                	ld	s0,16(sp)
    80001bce:	64a2                	ld	s1,8(sp)
    80001bd0:	6902                	ld	s2,0(sp)
    80001bd2:	6105                	addi	sp,sp,32
    80001bd4:	8082                	ret
  p->pid = allocpid();
    80001bd6:	00000097          	auipc	ra,0x0
    80001bda:	f12080e7          	jalr	-238(ra) # 80001ae8 <allocpid>
    80001bde:	c0a8                	sw	a0,64(s1)
  if((p->tf = (struct trapframe *)kalloc()) == 0){
    80001be0:	fffff097          	auipc	ra,0xfffff
    80001be4:	d9c080e7          	jalr	-612(ra) # 8000097c <kalloc>
    80001be8:	892a                	mv	s2,a0
    80001bea:	f0a8                	sd	a0,96(s1)
    80001bec:	c915                	beqz	a0,80001c20 <allocproc+0x96>
  p->pagetable = proc_pagetable(p);
    80001bee:	8526                	mv	a0,s1
    80001bf0:	00000097          	auipc	ra,0x0
    80001bf4:	f3e080e7          	jalr	-194(ra) # 80001b2e <proc_pagetable>
    80001bf8:	eca8                	sd	a0,88(s1)
  memset(&p->context, 0, sizeof p->context);
    80001bfa:	07000613          	li	a2,112
    80001bfe:	4581                	li	a1,0
    80001c00:	06848513          	addi	a0,s1,104
    80001c04:	fffff097          	auipc	ra,0xfffff
    80001c08:	17a080e7          	jalr	378(ra) # 80000d7e <memset>
  p->context.ra = (uint64)forkret;
    80001c0c:	00000797          	auipc	a5,0x0
    80001c10:	e9678793          	addi	a5,a5,-362 # 80001aa2 <forkret>
    80001c14:	f4bc                	sd	a5,104(s1)
  p->context.sp = p->kstack + PGSIZE;
    80001c16:	64bc                	ld	a5,72(s1)
    80001c18:	6705                	lui	a4,0x1
    80001c1a:	97ba                	add	a5,a5,a4
    80001c1c:	f8bc                	sd	a5,112(s1)
  return p;
    80001c1e:	b76d                	j	80001bc8 <allocproc+0x3e>
    release(&p->lock);
    80001c20:	8526                	mv	a0,s1
    80001c22:	fffff097          	auipc	ra,0xfffff
    80001c26:	f5e080e7          	jalr	-162(ra) # 80000b80 <release>
    return 0;
    80001c2a:	84ca                	mv	s1,s2
    80001c2c:	bf71                	j	80001bc8 <allocproc+0x3e>

0000000080001c2e <proc_freepagetable>:
{
    80001c2e:	1101                	addi	sp,sp,-32
    80001c30:	ec06                	sd	ra,24(sp)
    80001c32:	e822                	sd	s0,16(sp)
    80001c34:	e426                	sd	s1,8(sp)
    80001c36:	e04a                	sd	s2,0(sp)
    80001c38:	1000                	addi	s0,sp,32
    80001c3a:	84aa                	mv	s1,a0
    80001c3c:	892e                	mv	s2,a1
  uvmunmap(pagetable, TRAMPOLINE, PGSIZE, 0);
    80001c3e:	4681                	li	a3,0
    80001c40:	6605                	lui	a2,0x1
    80001c42:	040005b7          	lui	a1,0x4000
    80001c46:	15fd                	addi	a1,a1,-1
    80001c48:	05b2                	slli	a1,a1,0xc
    80001c4a:	fffff097          	auipc	ra,0xfffff
    80001c4e:	77e080e7          	jalr	1918(ra) # 800013c8 <uvmunmap>
  uvmunmap(pagetable, TRAPFRAME, PGSIZE, 0);
    80001c52:	4681                	li	a3,0
    80001c54:	6605                	lui	a2,0x1
    80001c56:	020005b7          	lui	a1,0x2000
    80001c5a:	15fd                	addi	a1,a1,-1
    80001c5c:	05b6                	slli	a1,a1,0xd
    80001c5e:	8526                	mv	a0,s1
    80001c60:	fffff097          	auipc	ra,0xfffff
    80001c64:	768080e7          	jalr	1896(ra) # 800013c8 <uvmunmap>
  if(sz > 0)
    80001c68:	00091863          	bnez	s2,80001c78 <proc_freepagetable+0x4a>
}
    80001c6c:	60e2                	ld	ra,24(sp)
    80001c6e:	6442                	ld	s0,16(sp)
    80001c70:	64a2                	ld	s1,8(sp)
    80001c72:	6902                	ld	s2,0(sp)
    80001c74:	6105                	addi	sp,sp,32
    80001c76:	8082                	ret
    uvmfree(pagetable, sz);
    80001c78:	85ca                	mv	a1,s2
    80001c7a:	8526                	mv	a0,s1
    80001c7c:	00000097          	auipc	ra,0x0
    80001c80:	9b2080e7          	jalr	-1614(ra) # 8000162e <uvmfree>
}
    80001c84:	b7e5                	j	80001c6c <proc_freepagetable+0x3e>

0000000080001c86 <freeproc>:
{
    80001c86:	1101                	addi	sp,sp,-32
    80001c88:	ec06                	sd	ra,24(sp)
    80001c8a:	e822                	sd	s0,16(sp)
    80001c8c:	e426                	sd	s1,8(sp)
    80001c8e:	1000                	addi	s0,sp,32
    80001c90:	84aa                	mv	s1,a0
  if(p->tf)
    80001c92:	7128                	ld	a0,96(a0)
    80001c94:	c509                	beqz	a0,80001c9e <freeproc+0x18>
    kfree((void*)p->tf);
    80001c96:	fffff097          	auipc	ra,0xfffff
    80001c9a:	bea080e7          	jalr	-1046(ra) # 80000880 <kfree>
  p->tf = 0;
    80001c9e:	0604b023          	sd	zero,96(s1)
  if(p->pagetable)
    80001ca2:	6ca8                	ld	a0,88(s1)
    80001ca4:	c511                	beqz	a0,80001cb0 <freeproc+0x2a>
    proc_freepagetable(p->pagetable, p->sz);
    80001ca6:	68ac                	ld	a1,80(s1)
    80001ca8:	00000097          	auipc	ra,0x0
    80001cac:	f86080e7          	jalr	-122(ra) # 80001c2e <proc_freepagetable>
  p->pagetable = 0;
    80001cb0:	0404bc23          	sd	zero,88(s1)
  p->sz = 0;
    80001cb4:	0404b823          	sd	zero,80(s1)
  p->pid = 0;
    80001cb8:	0404a023          	sw	zero,64(s1)
  p->parent = 0;
    80001cbc:	0204b423          	sd	zero,40(s1)
  p->name[0] = 0;
    80001cc0:	16048023          	sb	zero,352(s1)
  p->chan = 0;
    80001cc4:	0204b823          	sd	zero,48(s1)
  p->killed = 0;
    80001cc8:	0204ac23          	sw	zero,56(s1)
  p->xstate = 0;
    80001ccc:	0204ae23          	sw	zero,60(s1)
  p->state = UNUSED;
    80001cd0:	0204a023          	sw	zero,32(s1)
}
    80001cd4:	60e2                	ld	ra,24(sp)
    80001cd6:	6442                	ld	s0,16(sp)
    80001cd8:	64a2                	ld	s1,8(sp)
    80001cda:	6105                	addi	sp,sp,32
    80001cdc:	8082                	ret

0000000080001cde <userinit>:
{
    80001cde:	1101                	addi	sp,sp,-32
    80001ce0:	ec06                	sd	ra,24(sp)
    80001ce2:	e822                	sd	s0,16(sp)
    80001ce4:	e426                	sd	s1,8(sp)
    80001ce6:	1000                	addi	s0,sp,32
  p = allocproc();
    80001ce8:	00000097          	auipc	ra,0x0
    80001cec:	ea2080e7          	jalr	-350(ra) # 80001b8a <allocproc>
    80001cf0:	84aa                	mv	s1,a0
  initproc = p;
    80001cf2:	00026797          	auipc	a5,0x26
    80001cf6:	34a7b323          	sd	a0,838(a5) # 80028038 <initproc>
  uvminit(p->pagetable, initcode, sizeof(initcode));
    80001cfa:	03300613          	li	a2,51
    80001cfe:	00007597          	auipc	a1,0x7
    80001d02:	30258593          	addi	a1,a1,770 # 80009000 <initcode>
    80001d06:	6d28                	ld	a0,88(a0)
    80001d08:	fffff097          	auipc	ra,0xfffff
    80001d0c:	7c6080e7          	jalr	1990(ra) # 800014ce <uvminit>
  p->sz = PGSIZE;
    80001d10:	6785                	lui	a5,0x1
    80001d12:	e8bc                	sd	a5,80(s1)
  p->tf->epc = 0;      // user program counter
    80001d14:	70b8                	ld	a4,96(s1)
    80001d16:	00073c23          	sd	zero,24(a4) # 1018 <_entry-0x7fffefe8>
  p->tf->sp = PGSIZE;  // user stack pointer
    80001d1a:	70b8                	ld	a4,96(s1)
    80001d1c:	fb1c                	sd	a5,48(a4)
  safestrcpy(p->name, "initcode", sizeof(p->name));
    80001d1e:	4641                	li	a2,16
    80001d20:	00006597          	auipc	a1,0x6
    80001d24:	72058593          	addi	a1,a1,1824 # 80008440 <userret+0x3b0>
    80001d28:	16048513          	addi	a0,s1,352
    80001d2c:	fffff097          	auipc	ra,0xfffff
    80001d30:	1a8080e7          	jalr	424(ra) # 80000ed4 <safestrcpy>
  p->cwd = namei("/");
    80001d34:	00006517          	auipc	a0,0x6
    80001d38:	71c50513          	addi	a0,a0,1820 # 80008450 <userret+0x3c0>
    80001d3c:	00002097          	auipc	ra,0x2
    80001d40:	144080e7          	jalr	324(ra) # 80003e80 <namei>
    80001d44:	14a4bc23          	sd	a0,344(s1)
  p->state = RUNNABLE;
    80001d48:	4789                	li	a5,2
    80001d4a:	d09c                	sw	a5,32(s1)
  release(&p->lock);
    80001d4c:	8526                	mv	a0,s1
    80001d4e:	fffff097          	auipc	ra,0xfffff
    80001d52:	e32080e7          	jalr	-462(ra) # 80000b80 <release>
}
    80001d56:	60e2                	ld	ra,24(sp)
    80001d58:	6442                	ld	s0,16(sp)
    80001d5a:	64a2                	ld	s1,8(sp)
    80001d5c:	6105                	addi	sp,sp,32
    80001d5e:	8082                	ret

0000000080001d60 <growproc>:
{
    80001d60:	1101                	addi	sp,sp,-32
    80001d62:	ec06                	sd	ra,24(sp)
    80001d64:	e822                	sd	s0,16(sp)
    80001d66:	e426                	sd	s1,8(sp)
    80001d68:	e04a                	sd	s2,0(sp)
    80001d6a:	1000                	addi	s0,sp,32
    80001d6c:	84aa                	mv	s1,a0
  struct proc *p = myproc();
    80001d6e:	00000097          	auipc	ra,0x0
    80001d72:	cfc080e7          	jalr	-772(ra) # 80001a6a <myproc>
    80001d76:	892a                	mv	s2,a0
  sz = p->sz;
    80001d78:	692c                	ld	a1,80(a0)
    80001d7a:	0005861b          	sext.w	a2,a1
  if(n > 0){
    80001d7e:	00904f63          	bgtz	s1,80001d9c <growproc+0x3c>
  } else if(n < 0){
    80001d82:	0204cc63          	bltz	s1,80001dba <growproc+0x5a>
  p->sz = sz;
    80001d86:	1602                	slli	a2,a2,0x20
    80001d88:	9201                	srli	a2,a2,0x20
    80001d8a:	04c93823          	sd	a2,80(s2)
  return 0;
    80001d8e:	4501                	li	a0,0
}
    80001d90:	60e2                	ld	ra,24(sp)
    80001d92:	6442                	ld	s0,16(sp)
    80001d94:	64a2                	ld	s1,8(sp)
    80001d96:	6902                	ld	s2,0(sp)
    80001d98:	6105                	addi	sp,sp,32
    80001d9a:	8082                	ret
    if((sz = uvmalloc(p->pagetable, sz, sz + n)) == 0) {
    80001d9c:	9e25                	addw	a2,a2,s1
    80001d9e:	1602                	slli	a2,a2,0x20
    80001da0:	9201                	srli	a2,a2,0x20
    80001da2:	1582                	slli	a1,a1,0x20
    80001da4:	9181                	srli	a1,a1,0x20
    80001da6:	6d28                	ld	a0,88(a0)
    80001da8:	fffff097          	auipc	ra,0xfffff
    80001dac:	7dc080e7          	jalr	2012(ra) # 80001584 <uvmalloc>
    80001db0:	0005061b          	sext.w	a2,a0
    80001db4:	fa69                	bnez	a2,80001d86 <growproc+0x26>
      return -1;
    80001db6:	557d                	li	a0,-1
    80001db8:	bfe1                	j	80001d90 <growproc+0x30>
    sz = uvmdealloc(p->pagetable, sz, sz + n);
    80001dba:	9e25                	addw	a2,a2,s1
    80001dbc:	1602                	slli	a2,a2,0x20
    80001dbe:	9201                	srli	a2,a2,0x20
    80001dc0:	1582                	slli	a1,a1,0x20
    80001dc2:	9181                	srli	a1,a1,0x20
    80001dc4:	6d28                	ld	a0,88(a0)
    80001dc6:	fffff097          	auipc	ra,0xfffff
    80001dca:	77a080e7          	jalr	1914(ra) # 80001540 <uvmdealloc>
    80001dce:	0005061b          	sext.w	a2,a0
    80001dd2:	bf55                	j	80001d86 <growproc+0x26>

0000000080001dd4 <fork>:
{
    80001dd4:	7179                	addi	sp,sp,-48
    80001dd6:	f406                	sd	ra,40(sp)
    80001dd8:	f022                	sd	s0,32(sp)
    80001dda:	ec26                	sd	s1,24(sp)
    80001ddc:	e84a                	sd	s2,16(sp)
    80001dde:	e44e                	sd	s3,8(sp)
    80001de0:	e052                	sd	s4,0(sp)
    80001de2:	1800                	addi	s0,sp,48
  struct proc *p = myproc();
    80001de4:	00000097          	auipc	ra,0x0
    80001de8:	c86080e7          	jalr	-890(ra) # 80001a6a <myproc>
    80001dec:	892a                	mv	s2,a0
  if((np = allocproc()) == 0){
    80001dee:	00000097          	auipc	ra,0x0
    80001df2:	d9c080e7          	jalr	-612(ra) # 80001b8a <allocproc>
    80001df6:	c175                	beqz	a0,80001eda <fork+0x106>
    80001df8:	89aa                	mv	s3,a0
  if(uvmcopy(p->pagetable, np->pagetable, p->sz) < 0){
    80001dfa:	05093603          	ld	a2,80(s2)
    80001dfe:	6d2c                	ld	a1,88(a0)
    80001e00:	05893503          	ld	a0,88(s2)
    80001e04:	00000097          	auipc	ra,0x0
    80001e08:	858080e7          	jalr	-1960(ra) # 8000165c <uvmcopy>
    80001e0c:	04054863          	bltz	a0,80001e5c <fork+0x88>
  np->sz = p->sz;
    80001e10:	05093783          	ld	a5,80(s2)
    80001e14:	04f9b823          	sd	a5,80(s3) # 4000050 <_entry-0x7bffffb0>
  np->parent = p;
    80001e18:	0329b423          	sd	s2,40(s3)
  *(np->tf) = *(p->tf);
    80001e1c:	06093683          	ld	a3,96(s2)
    80001e20:	87b6                	mv	a5,a3
    80001e22:	0609b703          	ld	a4,96(s3)
    80001e26:	12068693          	addi	a3,a3,288
    80001e2a:	0007b803          	ld	a6,0(a5) # 1000 <_entry-0x7ffff000>
    80001e2e:	6788                	ld	a0,8(a5)
    80001e30:	6b8c                	ld	a1,16(a5)
    80001e32:	6f90                	ld	a2,24(a5)
    80001e34:	01073023          	sd	a6,0(a4)
    80001e38:	e708                	sd	a0,8(a4)
    80001e3a:	eb0c                	sd	a1,16(a4)
    80001e3c:	ef10                	sd	a2,24(a4)
    80001e3e:	02078793          	addi	a5,a5,32
    80001e42:	02070713          	addi	a4,a4,32
    80001e46:	fed792e3          	bne	a5,a3,80001e2a <fork+0x56>
  np->tf->a0 = 0;
    80001e4a:	0609b783          	ld	a5,96(s3)
    80001e4e:	0607b823          	sd	zero,112(a5)
    80001e52:	0d800493          	li	s1,216
  for(i = 0; i < NOFILE; i++)
    80001e56:	15800a13          	li	s4,344
    80001e5a:	a03d                	j	80001e88 <fork+0xb4>
    freeproc(np);
    80001e5c:	854e                	mv	a0,s3
    80001e5e:	00000097          	auipc	ra,0x0
    80001e62:	e28080e7          	jalr	-472(ra) # 80001c86 <freeproc>
    release(&np->lock);
    80001e66:	854e                	mv	a0,s3
    80001e68:	fffff097          	auipc	ra,0xfffff
    80001e6c:	d18080e7          	jalr	-744(ra) # 80000b80 <release>
    return -1;
    80001e70:	54fd                	li	s1,-1
    80001e72:	a899                	j	80001ec8 <fork+0xf4>
      np->ofile[i] = filedup(p->ofile[i]);
    80001e74:	00002097          	auipc	ra,0x2
    80001e78:	7ae080e7          	jalr	1966(ra) # 80004622 <filedup>
    80001e7c:	009987b3          	add	a5,s3,s1
    80001e80:	e388                	sd	a0,0(a5)
  for(i = 0; i < NOFILE; i++)
    80001e82:	04a1                	addi	s1,s1,8
    80001e84:	01448763          	beq	s1,s4,80001e92 <fork+0xbe>
    if(p->ofile[i])
    80001e88:	009907b3          	add	a5,s2,s1
    80001e8c:	6388                	ld	a0,0(a5)
    80001e8e:	f17d                	bnez	a0,80001e74 <fork+0xa0>
    80001e90:	bfcd                	j	80001e82 <fork+0xae>
  np->cwd = idup(p->cwd);
    80001e92:	15893503          	ld	a0,344(s2)
    80001e96:	00002097          	auipc	ra,0x2
    80001e9a:	822080e7          	jalr	-2014(ra) # 800036b8 <idup>
    80001e9e:	14a9bc23          	sd	a0,344(s3)
  safestrcpy(np->name, p->name, sizeof(p->name));
    80001ea2:	4641                	li	a2,16
    80001ea4:	16090593          	addi	a1,s2,352
    80001ea8:	16098513          	addi	a0,s3,352
    80001eac:	fffff097          	auipc	ra,0xfffff
    80001eb0:	028080e7          	jalr	40(ra) # 80000ed4 <safestrcpy>
  pid = np->pid;
    80001eb4:	0409a483          	lw	s1,64(s3)
  np->state = RUNNABLE;
    80001eb8:	4789                	li	a5,2
    80001eba:	02f9a023          	sw	a5,32(s3)
  release(&np->lock);
    80001ebe:	854e                	mv	a0,s3
    80001ec0:	fffff097          	auipc	ra,0xfffff
    80001ec4:	cc0080e7          	jalr	-832(ra) # 80000b80 <release>
}
    80001ec8:	8526                	mv	a0,s1
    80001eca:	70a2                	ld	ra,40(sp)
    80001ecc:	7402                	ld	s0,32(sp)
    80001ece:	64e2                	ld	s1,24(sp)
    80001ed0:	6942                	ld	s2,16(sp)
    80001ed2:	69a2                	ld	s3,8(sp)
    80001ed4:	6a02                	ld	s4,0(sp)
    80001ed6:	6145                	addi	sp,sp,48
    80001ed8:	8082                	ret
    return -1;
    80001eda:	54fd                	li	s1,-1
    80001edc:	b7f5                	j	80001ec8 <fork+0xf4>

0000000080001ede <reparent>:
{
    80001ede:	7179                	addi	sp,sp,-48
    80001ee0:	f406                	sd	ra,40(sp)
    80001ee2:	f022                	sd	s0,32(sp)
    80001ee4:	ec26                	sd	s1,24(sp)
    80001ee6:	e84a                	sd	s2,16(sp)
    80001ee8:	e44e                	sd	s3,8(sp)
    80001eea:	e052                	sd	s4,0(sp)
    80001eec:	1800                	addi	s0,sp,48
    80001eee:	892a                	mv	s2,a0
  for(pp = proc; pp < &proc[NPROC]; pp++){
    80001ef0:	00013497          	auipc	s1,0x13
    80001ef4:	d7048493          	addi	s1,s1,-656 # 80014c60 <proc>
      pp->parent = initproc;
    80001ef8:	00026a17          	auipc	s4,0x26
    80001efc:	140a0a13          	addi	s4,s4,320 # 80028038 <initproc>
  for(pp = proc; pp < &proc[NPROC]; pp++){
    80001f00:	00014997          	auipc	s3,0x14
    80001f04:	bc098993          	addi	s3,s3,-1088 # 80015ac0 <tickslock>
    80001f08:	a029                	j	80001f12 <reparent+0x34>
    80001f0a:	17048493          	addi	s1,s1,368
    80001f0e:	03348363          	beq	s1,s3,80001f34 <reparent+0x56>
    if(pp->parent == p){
    80001f12:	749c                	ld	a5,40(s1)
    80001f14:	ff279be3          	bne	a5,s2,80001f0a <reparent+0x2c>
      acquire(&pp->lock);
    80001f18:	8526                	mv	a0,s1
    80001f1a:	fffff097          	auipc	ra,0xfffff
    80001f1e:	b96080e7          	jalr	-1130(ra) # 80000ab0 <acquire>
      pp->parent = initproc;
    80001f22:	000a3783          	ld	a5,0(s4)
    80001f26:	f49c                	sd	a5,40(s1)
      release(&pp->lock);
    80001f28:	8526                	mv	a0,s1
    80001f2a:	fffff097          	auipc	ra,0xfffff
    80001f2e:	c56080e7          	jalr	-938(ra) # 80000b80 <release>
    80001f32:	bfe1                	j	80001f0a <reparent+0x2c>
}
    80001f34:	70a2                	ld	ra,40(sp)
    80001f36:	7402                	ld	s0,32(sp)
    80001f38:	64e2                	ld	s1,24(sp)
    80001f3a:	6942                	ld	s2,16(sp)
    80001f3c:	69a2                	ld	s3,8(sp)
    80001f3e:	6a02                	ld	s4,0(sp)
    80001f40:	6145                	addi	sp,sp,48
    80001f42:	8082                	ret

0000000080001f44 <scheduler>:
{
    80001f44:	715d                	addi	sp,sp,-80
    80001f46:	e486                	sd	ra,72(sp)
    80001f48:	e0a2                	sd	s0,64(sp)
    80001f4a:	fc26                	sd	s1,56(sp)
    80001f4c:	f84a                	sd	s2,48(sp)
    80001f4e:	f44e                	sd	s3,40(sp)
    80001f50:	f052                	sd	s4,32(sp)
    80001f52:	ec56                	sd	s5,24(sp)
    80001f54:	e85a                	sd	s6,16(sp)
    80001f56:	e45e                	sd	s7,8(sp)
    80001f58:	e062                	sd	s8,0(sp)
    80001f5a:	0880                	addi	s0,sp,80
    80001f5c:	8792                	mv	a5,tp
  int id = r_tp();
    80001f5e:	2781                	sext.w	a5,a5
  c->proc = 0;
    80001f60:	00779b13          	slli	s6,a5,0x7
    80001f64:	00013717          	auipc	a4,0x13
    80001f68:	8dc70713          	addi	a4,a4,-1828 # 80014840 <pid_lock>
    80001f6c:	975a                	add	a4,a4,s6
    80001f6e:	02073023          	sd	zero,32(a4)
        swtch(&c->scheduler, &p->context);
    80001f72:	00013717          	auipc	a4,0x13
    80001f76:	8f670713          	addi	a4,a4,-1802 # 80014868 <cpus+0x8>
    80001f7a:	9b3a                	add	s6,s6,a4
        p->state = RUNNING;
    80001f7c:	4b8d                	li	s7,3
        c->proc = p;
    80001f7e:	079e                	slli	a5,a5,0x7
    80001f80:	00013917          	auipc	s2,0x13
    80001f84:	8c090913          	addi	s2,s2,-1856 # 80014840 <pid_lock>
    80001f88:	993e                	add	s2,s2,a5
    for(p = proc; p < &proc[NPROC]; p++) {
    80001f8a:	00014a17          	auipc	s4,0x14
    80001f8e:	b36a0a13          	addi	s4,s4,-1226 # 80015ac0 <tickslock>
    80001f92:	a0b9                	j	80001fe0 <scheduler+0x9c>
        p->state = RUNNING;
    80001f94:	0374a023          	sw	s7,32(s1)
        c->proc = p;
    80001f98:	02993023          	sd	s1,32(s2)
        swtch(&c->scheduler, &p->context);
    80001f9c:	06848593          	addi	a1,s1,104
    80001fa0:	855a                	mv	a0,s6
    80001fa2:	00000097          	auipc	ra,0x0
    80001fa6:	63e080e7          	jalr	1598(ra) # 800025e0 <swtch>
        c->proc = 0;
    80001faa:	02093023          	sd	zero,32(s2)
        found = 1;
    80001fae:	8ae2                	mv	s5,s8
      c->intena = 0;
    80001fb0:	08092e23          	sw	zero,156(s2)
      release(&p->lock);
    80001fb4:	8526                	mv	a0,s1
    80001fb6:	fffff097          	auipc	ra,0xfffff
    80001fba:	bca080e7          	jalr	-1078(ra) # 80000b80 <release>
    for(p = proc; p < &proc[NPROC]; p++) {
    80001fbe:	17048493          	addi	s1,s1,368
    80001fc2:	01448b63          	beq	s1,s4,80001fd8 <scheduler+0x94>
      acquire(&p->lock);
    80001fc6:	8526                	mv	a0,s1
    80001fc8:	fffff097          	auipc	ra,0xfffff
    80001fcc:	ae8080e7          	jalr	-1304(ra) # 80000ab0 <acquire>
      if(p->state == RUNNABLE) {
    80001fd0:	509c                	lw	a5,32(s1)
    80001fd2:	fd379fe3          	bne	a5,s3,80001fb0 <scheduler+0x6c>
    80001fd6:	bf7d                	j	80001f94 <scheduler+0x50>
    if(found == 0){
    80001fd8:	000a9463          	bnez	s5,80001fe0 <scheduler+0x9c>
      asm volatile("wfi");
    80001fdc:	10500073          	wfi
  asm volatile("csrr %0, sstatus" : "=r" (x) );
    80001fe0:	100027f3          	csrr	a5,sstatus
  w_sstatus(r_sstatus() | SSTATUS_SIE);
    80001fe4:	0027e793          	ori	a5,a5,2
  asm volatile("csrw sstatus, %0" : : "r" (x));
    80001fe8:	10079073          	csrw	sstatus,a5
  asm volatile("csrr %0, sstatus" : "=r" (x) );
    80001fec:	100027f3          	csrr	a5,sstatus
  w_sstatus(r_sstatus() & ~SSTATUS_SIE);
    80001ff0:	9bf5                	andi	a5,a5,-3
  asm volatile("csrw sstatus, %0" : : "r" (x));
    80001ff2:	10079073          	csrw	sstatus,a5
    int found = 0;
    80001ff6:	4a81                	li	s5,0
    for(p = proc; p < &proc[NPROC]; p++) {
    80001ff8:	00013497          	auipc	s1,0x13
    80001ffc:	c6848493          	addi	s1,s1,-920 # 80014c60 <proc>
      if(p->state == RUNNABLE) {
    80002000:	4989                	li	s3,2
        found = 1;
    80002002:	4c05                	li	s8,1
    80002004:	b7c9                	j	80001fc6 <scheduler+0x82>

0000000080002006 <sched>:
{
    80002006:	7179                	addi	sp,sp,-48
    80002008:	f406                	sd	ra,40(sp)
    8000200a:	f022                	sd	s0,32(sp)
    8000200c:	ec26                	sd	s1,24(sp)
    8000200e:	e84a                	sd	s2,16(sp)
    80002010:	e44e                	sd	s3,8(sp)
    80002012:	1800                	addi	s0,sp,48
  struct proc *p = myproc();
    80002014:	00000097          	auipc	ra,0x0
    80002018:	a56080e7          	jalr	-1450(ra) # 80001a6a <myproc>
    8000201c:	84aa                	mv	s1,a0
  if(!holding(&p->lock))
    8000201e:	fffff097          	auipc	ra,0xfffff
    80002022:	a14080e7          	jalr	-1516(ra) # 80000a32 <holding>
    80002026:	c93d                	beqz	a0,8000209c <sched+0x96>
  asm volatile("mv %0, tp" : "=r" (x) );
    80002028:	8792                	mv	a5,tp
  if(mycpu()->noff != 1)
    8000202a:	2781                	sext.w	a5,a5
    8000202c:	079e                	slli	a5,a5,0x7
    8000202e:	00013717          	auipc	a4,0x13
    80002032:	81270713          	addi	a4,a4,-2030 # 80014840 <pid_lock>
    80002036:	97ba                	add	a5,a5,a4
    80002038:	0987a703          	lw	a4,152(a5)
    8000203c:	4785                	li	a5,1
    8000203e:	06f71763          	bne	a4,a5,800020ac <sched+0xa6>
  if(p->state == RUNNING)
    80002042:	5098                	lw	a4,32(s1)
    80002044:	478d                	li	a5,3
    80002046:	06f70b63          	beq	a4,a5,800020bc <sched+0xb6>
  asm volatile("csrr %0, sstatus" : "=r" (x) );
    8000204a:	100027f3          	csrr	a5,sstatus
  return (x & SSTATUS_SIE) != 0;
    8000204e:	8b89                	andi	a5,a5,2
  if(intr_get())
    80002050:	efb5                	bnez	a5,800020cc <sched+0xc6>
  asm volatile("mv %0, tp" : "=r" (x) );
    80002052:	8792                	mv	a5,tp
  intena = mycpu()->intena;
    80002054:	00012917          	auipc	s2,0x12
    80002058:	7ec90913          	addi	s2,s2,2028 # 80014840 <pid_lock>
    8000205c:	2781                	sext.w	a5,a5
    8000205e:	079e                	slli	a5,a5,0x7
    80002060:	97ca                	add	a5,a5,s2
    80002062:	09c7a983          	lw	s3,156(a5)
    80002066:	8792                	mv	a5,tp
  swtch(&p->context, &mycpu()->scheduler);
    80002068:	2781                	sext.w	a5,a5
    8000206a:	079e                	slli	a5,a5,0x7
    8000206c:	00012597          	auipc	a1,0x12
    80002070:	7fc58593          	addi	a1,a1,2044 # 80014868 <cpus+0x8>
    80002074:	95be                	add	a1,a1,a5
    80002076:	06848513          	addi	a0,s1,104
    8000207a:	00000097          	auipc	ra,0x0
    8000207e:	566080e7          	jalr	1382(ra) # 800025e0 <swtch>
    80002082:	8792                	mv	a5,tp
  mycpu()->intena = intena;
    80002084:	2781                	sext.w	a5,a5
    80002086:	079e                	slli	a5,a5,0x7
    80002088:	97ca                	add	a5,a5,s2
    8000208a:	0937ae23          	sw	s3,156(a5)
}
    8000208e:	70a2                	ld	ra,40(sp)
    80002090:	7402                	ld	s0,32(sp)
    80002092:	64e2                	ld	s1,24(sp)
    80002094:	6942                	ld	s2,16(sp)
    80002096:	69a2                	ld	s3,8(sp)
    80002098:	6145                	addi	sp,sp,48
    8000209a:	8082                	ret
    panic("sched p->lock");
    8000209c:	00006517          	auipc	a0,0x6
    800020a0:	3bc50513          	addi	a0,a0,956 # 80008458 <userret+0x3c8>
    800020a4:	ffffe097          	auipc	ra,0xffffe
    800020a8:	4b6080e7          	jalr	1206(ra) # 8000055a <panic>
    panic("sched locks");
    800020ac:	00006517          	auipc	a0,0x6
    800020b0:	3bc50513          	addi	a0,a0,956 # 80008468 <userret+0x3d8>
    800020b4:	ffffe097          	auipc	ra,0xffffe
    800020b8:	4a6080e7          	jalr	1190(ra) # 8000055a <panic>
    panic("sched running");
    800020bc:	00006517          	auipc	a0,0x6
    800020c0:	3bc50513          	addi	a0,a0,956 # 80008478 <userret+0x3e8>
    800020c4:	ffffe097          	auipc	ra,0xffffe
    800020c8:	496080e7          	jalr	1174(ra) # 8000055a <panic>
    panic("sched interruptible");
    800020cc:	00006517          	auipc	a0,0x6
    800020d0:	3bc50513          	addi	a0,a0,956 # 80008488 <userret+0x3f8>
    800020d4:	ffffe097          	auipc	ra,0xffffe
    800020d8:	486080e7          	jalr	1158(ra) # 8000055a <panic>

00000000800020dc <exit>:
{
    800020dc:	7179                	addi	sp,sp,-48
    800020de:	f406                	sd	ra,40(sp)
    800020e0:	f022                	sd	s0,32(sp)
    800020e2:	ec26                	sd	s1,24(sp)
    800020e4:	e84a                	sd	s2,16(sp)
    800020e6:	e44e                	sd	s3,8(sp)
    800020e8:	e052                	sd	s4,0(sp)
    800020ea:	1800                	addi	s0,sp,48
    800020ec:	8a2a                	mv	s4,a0
  struct proc *p = myproc();
    800020ee:	00000097          	auipc	ra,0x0
    800020f2:	97c080e7          	jalr	-1668(ra) # 80001a6a <myproc>
    800020f6:	89aa                	mv	s3,a0
  if(p == initproc)
    800020f8:	00026797          	auipc	a5,0x26
    800020fc:	f407b783          	ld	a5,-192(a5) # 80028038 <initproc>
    80002100:	0d850493          	addi	s1,a0,216
    80002104:	15850913          	addi	s2,a0,344
    80002108:	02a79363          	bne	a5,a0,8000212e <exit+0x52>
    panic("init exiting");
    8000210c:	00006517          	auipc	a0,0x6
    80002110:	39450513          	addi	a0,a0,916 # 800084a0 <userret+0x410>
    80002114:	ffffe097          	auipc	ra,0xffffe
    80002118:	446080e7          	jalr	1094(ra) # 8000055a <panic>
      fileclose(f);
    8000211c:	00002097          	auipc	ra,0x2
    80002120:	558080e7          	jalr	1368(ra) # 80004674 <fileclose>
      p->ofile[fd] = 0;
    80002124:	0004b023          	sd	zero,0(s1)
  for(int fd = 0; fd < NOFILE; fd++){
    80002128:	04a1                	addi	s1,s1,8
    8000212a:	01248563          	beq	s1,s2,80002134 <exit+0x58>
    if(p->ofile[fd]){
    8000212e:	6088                	ld	a0,0(s1)
    80002130:	f575                	bnez	a0,8000211c <exit+0x40>
    80002132:	bfdd                	j	80002128 <exit+0x4c>
  begin_op(ROOTDEV);
    80002134:	4501                	li	a0,0
    80002136:	00002097          	auipc	ra,0x2
    8000213a:	fa4080e7          	jalr	-92(ra) # 800040da <begin_op>
  iput(p->cwd);
    8000213e:	1589b503          	ld	a0,344(s3)
    80002142:	00001097          	auipc	ra,0x1
    80002146:	6c2080e7          	jalr	1730(ra) # 80003804 <iput>
  end_op(ROOTDEV);
    8000214a:	4501                	li	a0,0
    8000214c:	00002097          	auipc	ra,0x2
    80002150:	038080e7          	jalr	56(ra) # 80004184 <end_op>
  p->cwd = 0;
    80002154:	1409bc23          	sd	zero,344(s3)
  acquire(&initproc->lock);
    80002158:	00026497          	auipc	s1,0x26
    8000215c:	ee048493          	addi	s1,s1,-288 # 80028038 <initproc>
    80002160:	6088                	ld	a0,0(s1)
    80002162:	fffff097          	auipc	ra,0xfffff
    80002166:	94e080e7          	jalr	-1714(ra) # 80000ab0 <acquire>
  wakeup1(initproc);
    8000216a:	6088                	ld	a0,0(s1)
    8000216c:	fffff097          	auipc	ra,0xfffff
    80002170:	7be080e7          	jalr	1982(ra) # 8000192a <wakeup1>
  release(&initproc->lock);
    80002174:	6088                	ld	a0,0(s1)
    80002176:	fffff097          	auipc	ra,0xfffff
    8000217a:	a0a080e7          	jalr	-1526(ra) # 80000b80 <release>
  acquire(&p->lock);
    8000217e:	854e                	mv	a0,s3
    80002180:	fffff097          	auipc	ra,0xfffff
    80002184:	930080e7          	jalr	-1744(ra) # 80000ab0 <acquire>
  struct proc *original_parent = p->parent;
    80002188:	0289b483          	ld	s1,40(s3)
  release(&p->lock);
    8000218c:	854e                	mv	a0,s3
    8000218e:	fffff097          	auipc	ra,0xfffff
    80002192:	9f2080e7          	jalr	-1550(ra) # 80000b80 <release>
  acquire(&original_parent->lock);
    80002196:	8526                	mv	a0,s1
    80002198:	fffff097          	auipc	ra,0xfffff
    8000219c:	918080e7          	jalr	-1768(ra) # 80000ab0 <acquire>
  acquire(&p->lock);
    800021a0:	854e                	mv	a0,s3
    800021a2:	fffff097          	auipc	ra,0xfffff
    800021a6:	90e080e7          	jalr	-1778(ra) # 80000ab0 <acquire>
  reparent(p);
    800021aa:	854e                	mv	a0,s3
    800021ac:	00000097          	auipc	ra,0x0
    800021b0:	d32080e7          	jalr	-718(ra) # 80001ede <reparent>
  wakeup1(original_parent);
    800021b4:	8526                	mv	a0,s1
    800021b6:	fffff097          	auipc	ra,0xfffff
    800021ba:	774080e7          	jalr	1908(ra) # 8000192a <wakeup1>
  p->xstate = status;
    800021be:	0349ae23          	sw	s4,60(s3)
  p->state = ZOMBIE;
    800021c2:	4791                	li	a5,4
    800021c4:	02f9a023          	sw	a5,32(s3)
  release(&original_parent->lock);
    800021c8:	8526                	mv	a0,s1
    800021ca:	fffff097          	auipc	ra,0xfffff
    800021ce:	9b6080e7          	jalr	-1610(ra) # 80000b80 <release>
  sched();
    800021d2:	00000097          	auipc	ra,0x0
    800021d6:	e34080e7          	jalr	-460(ra) # 80002006 <sched>
  panic("zombie exit");
    800021da:	00006517          	auipc	a0,0x6
    800021de:	2d650513          	addi	a0,a0,726 # 800084b0 <userret+0x420>
    800021e2:	ffffe097          	auipc	ra,0xffffe
    800021e6:	378080e7          	jalr	888(ra) # 8000055a <panic>

00000000800021ea <yield>:
{
    800021ea:	1101                	addi	sp,sp,-32
    800021ec:	ec06                	sd	ra,24(sp)
    800021ee:	e822                	sd	s0,16(sp)
    800021f0:	e426                	sd	s1,8(sp)
    800021f2:	1000                	addi	s0,sp,32
  struct proc *p = myproc();
    800021f4:	00000097          	auipc	ra,0x0
    800021f8:	876080e7          	jalr	-1930(ra) # 80001a6a <myproc>
    800021fc:	84aa                	mv	s1,a0
  acquire(&p->lock);
    800021fe:	fffff097          	auipc	ra,0xfffff
    80002202:	8b2080e7          	jalr	-1870(ra) # 80000ab0 <acquire>
  p->state = RUNNABLE;
    80002206:	4789                	li	a5,2
    80002208:	d09c                	sw	a5,32(s1)
  sched();
    8000220a:	00000097          	auipc	ra,0x0
    8000220e:	dfc080e7          	jalr	-516(ra) # 80002006 <sched>
  release(&p->lock);
    80002212:	8526                	mv	a0,s1
    80002214:	fffff097          	auipc	ra,0xfffff
    80002218:	96c080e7          	jalr	-1684(ra) # 80000b80 <release>
}
    8000221c:	60e2                	ld	ra,24(sp)
    8000221e:	6442                	ld	s0,16(sp)
    80002220:	64a2                	ld	s1,8(sp)
    80002222:	6105                	addi	sp,sp,32
    80002224:	8082                	ret

0000000080002226 <sleep>:
{
    80002226:	7179                	addi	sp,sp,-48
    80002228:	f406                	sd	ra,40(sp)
    8000222a:	f022                	sd	s0,32(sp)
    8000222c:	ec26                	sd	s1,24(sp)
    8000222e:	e84a                	sd	s2,16(sp)
    80002230:	e44e                	sd	s3,8(sp)
    80002232:	1800                	addi	s0,sp,48
    80002234:	89aa                	mv	s3,a0
    80002236:	892e                	mv	s2,a1
  struct proc *p = myproc();
    80002238:	00000097          	auipc	ra,0x0
    8000223c:	832080e7          	jalr	-1998(ra) # 80001a6a <myproc>
    80002240:	84aa                	mv	s1,a0
  if(lk != &p->lock){  //DOC: sleeplock0
    80002242:	05250663          	beq	a0,s2,8000228e <sleep+0x68>
    acquire(&p->lock);  //DOC: sleeplock1
    80002246:	fffff097          	auipc	ra,0xfffff
    8000224a:	86a080e7          	jalr	-1942(ra) # 80000ab0 <acquire>
    release(lk);
    8000224e:	854a                	mv	a0,s2
    80002250:	fffff097          	auipc	ra,0xfffff
    80002254:	930080e7          	jalr	-1744(ra) # 80000b80 <release>
  p->chan = chan;
    80002258:	0334b823          	sd	s3,48(s1)
  p->state = SLEEPING;
    8000225c:	4785                	li	a5,1
    8000225e:	d09c                	sw	a5,32(s1)
  sched();
    80002260:	00000097          	auipc	ra,0x0
    80002264:	da6080e7          	jalr	-602(ra) # 80002006 <sched>
  p->chan = 0;
    80002268:	0204b823          	sd	zero,48(s1)
    release(&p->lock);
    8000226c:	8526                	mv	a0,s1
    8000226e:	fffff097          	auipc	ra,0xfffff
    80002272:	912080e7          	jalr	-1774(ra) # 80000b80 <release>
    acquire(lk);
    80002276:	854a                	mv	a0,s2
    80002278:	fffff097          	auipc	ra,0xfffff
    8000227c:	838080e7          	jalr	-1992(ra) # 80000ab0 <acquire>
}
    80002280:	70a2                	ld	ra,40(sp)
    80002282:	7402                	ld	s0,32(sp)
    80002284:	64e2                	ld	s1,24(sp)
    80002286:	6942                	ld	s2,16(sp)
    80002288:	69a2                	ld	s3,8(sp)
    8000228a:	6145                	addi	sp,sp,48
    8000228c:	8082                	ret
  p->chan = chan;
    8000228e:	03353823          	sd	s3,48(a0)
  p->state = SLEEPING;
    80002292:	4785                	li	a5,1
    80002294:	d11c                	sw	a5,32(a0)
  sched();
    80002296:	00000097          	auipc	ra,0x0
    8000229a:	d70080e7          	jalr	-656(ra) # 80002006 <sched>
  p->chan = 0;
    8000229e:	0204b823          	sd	zero,48(s1)
  if(lk != &p->lock){
    800022a2:	bff9                	j	80002280 <sleep+0x5a>

00000000800022a4 <wait>:
{
    800022a4:	715d                	addi	sp,sp,-80
    800022a6:	e486                	sd	ra,72(sp)
    800022a8:	e0a2                	sd	s0,64(sp)
    800022aa:	fc26                	sd	s1,56(sp)
    800022ac:	f84a                	sd	s2,48(sp)
    800022ae:	f44e                	sd	s3,40(sp)
    800022b0:	f052                	sd	s4,32(sp)
    800022b2:	ec56                	sd	s5,24(sp)
    800022b4:	e85a                	sd	s6,16(sp)
    800022b6:	e45e                	sd	s7,8(sp)
    800022b8:	e062                	sd	s8,0(sp)
    800022ba:	0880                	addi	s0,sp,80
    800022bc:	8aaa                	mv	s5,a0
  struct proc *p = myproc();
    800022be:	fffff097          	auipc	ra,0xfffff
    800022c2:	7ac080e7          	jalr	1964(ra) # 80001a6a <myproc>
    800022c6:	892a                	mv	s2,a0
  acquire(&p->lock);
    800022c8:	8c2a                	mv	s8,a0
    800022ca:	ffffe097          	auipc	ra,0xffffe
    800022ce:	7e6080e7          	jalr	2022(ra) # 80000ab0 <acquire>
    havekids = 0;
    800022d2:	4b81                	li	s7,0
        if(np->state == ZOMBIE){
    800022d4:	4a11                	li	s4,4
    for(np = proc; np < &proc[NPROC]; np++){
    800022d6:	00013997          	auipc	s3,0x13
    800022da:	7ea98993          	addi	s3,s3,2026 # 80015ac0 <tickslock>
        havekids = 1;
    800022de:	4b05                	li	s6,1
    havekids = 0;
    800022e0:	875e                	mv	a4,s7
    for(np = proc; np < &proc[NPROC]; np++){
    800022e2:	00013497          	auipc	s1,0x13
    800022e6:	97e48493          	addi	s1,s1,-1666 # 80014c60 <proc>
    800022ea:	a08d                	j	8000234c <wait+0xa8>
          pid = np->pid;
    800022ec:	0404a983          	lw	s3,64(s1)
          if(addr != 0 && copyout(p->pagetable, addr, (char *)&np->xstate,
    800022f0:	000a8e63          	beqz	s5,8000230c <wait+0x68>
    800022f4:	4691                	li	a3,4
    800022f6:	03c48613          	addi	a2,s1,60
    800022fa:	85d6                	mv	a1,s5
    800022fc:	05893503          	ld	a0,88(s2)
    80002300:	fffff097          	auipc	ra,0xfffff
    80002304:	45e080e7          	jalr	1118(ra) # 8000175e <copyout>
    80002308:	02054263          	bltz	a0,8000232c <wait+0x88>
          freeproc(np);
    8000230c:	8526                	mv	a0,s1
    8000230e:	00000097          	auipc	ra,0x0
    80002312:	978080e7          	jalr	-1672(ra) # 80001c86 <freeproc>
          release(&np->lock);
    80002316:	8526                	mv	a0,s1
    80002318:	fffff097          	auipc	ra,0xfffff
    8000231c:	868080e7          	jalr	-1944(ra) # 80000b80 <release>
          release(&p->lock);
    80002320:	854a                	mv	a0,s2
    80002322:	fffff097          	auipc	ra,0xfffff
    80002326:	85e080e7          	jalr	-1954(ra) # 80000b80 <release>
          return pid;
    8000232a:	a8a9                	j	80002384 <wait+0xe0>
            release(&np->lock);
    8000232c:	8526                	mv	a0,s1
    8000232e:	fffff097          	auipc	ra,0xfffff
    80002332:	852080e7          	jalr	-1966(ra) # 80000b80 <release>
            release(&p->lock);
    80002336:	854a                	mv	a0,s2
    80002338:	fffff097          	auipc	ra,0xfffff
    8000233c:	848080e7          	jalr	-1976(ra) # 80000b80 <release>
            return -1;
    80002340:	59fd                	li	s3,-1
    80002342:	a089                	j	80002384 <wait+0xe0>
    for(np = proc; np < &proc[NPROC]; np++){
    80002344:	17048493          	addi	s1,s1,368
    80002348:	03348463          	beq	s1,s3,80002370 <wait+0xcc>
      if(np->parent == p){
    8000234c:	749c                	ld	a5,40(s1)
    8000234e:	ff279be3          	bne	a5,s2,80002344 <wait+0xa0>
        acquire(&np->lock);
    80002352:	8526                	mv	a0,s1
    80002354:	ffffe097          	auipc	ra,0xffffe
    80002358:	75c080e7          	jalr	1884(ra) # 80000ab0 <acquire>
        if(np->state == ZOMBIE){
    8000235c:	509c                	lw	a5,32(s1)
    8000235e:	f94787e3          	beq	a5,s4,800022ec <wait+0x48>
        release(&np->lock);
    80002362:	8526                	mv	a0,s1
    80002364:	fffff097          	auipc	ra,0xfffff
    80002368:	81c080e7          	jalr	-2020(ra) # 80000b80 <release>
        havekids = 1;
    8000236c:	875a                	mv	a4,s6
    8000236e:	bfd9                	j	80002344 <wait+0xa0>
    if(!havekids || p->killed){
    80002370:	c701                	beqz	a4,80002378 <wait+0xd4>
    80002372:	03892783          	lw	a5,56(s2)
    80002376:	c785                	beqz	a5,8000239e <wait+0xfa>
      release(&p->lock);
    80002378:	854a                	mv	a0,s2
    8000237a:	fffff097          	auipc	ra,0xfffff
    8000237e:	806080e7          	jalr	-2042(ra) # 80000b80 <release>
      return -1;
    80002382:	59fd                	li	s3,-1
}
    80002384:	854e                	mv	a0,s3
    80002386:	60a6                	ld	ra,72(sp)
    80002388:	6406                	ld	s0,64(sp)
    8000238a:	74e2                	ld	s1,56(sp)
    8000238c:	7942                	ld	s2,48(sp)
    8000238e:	79a2                	ld	s3,40(sp)
    80002390:	7a02                	ld	s4,32(sp)
    80002392:	6ae2                	ld	s5,24(sp)
    80002394:	6b42                	ld	s6,16(sp)
    80002396:	6ba2                	ld	s7,8(sp)
    80002398:	6c02                	ld	s8,0(sp)
    8000239a:	6161                	addi	sp,sp,80
    8000239c:	8082                	ret
    sleep(p, &p->lock);  //DOC: wait-sleep
    8000239e:	85e2                	mv	a1,s8
    800023a0:	854a                	mv	a0,s2
    800023a2:	00000097          	auipc	ra,0x0
    800023a6:	e84080e7          	jalr	-380(ra) # 80002226 <sleep>
    havekids = 0;
    800023aa:	bf1d                	j	800022e0 <wait+0x3c>

00000000800023ac <wakeup>:
{
    800023ac:	7139                	addi	sp,sp,-64
    800023ae:	fc06                	sd	ra,56(sp)
    800023b0:	f822                	sd	s0,48(sp)
    800023b2:	f426                	sd	s1,40(sp)
    800023b4:	f04a                	sd	s2,32(sp)
    800023b6:	ec4e                	sd	s3,24(sp)
    800023b8:	e852                	sd	s4,16(sp)
    800023ba:	e456                	sd	s5,8(sp)
    800023bc:	0080                	addi	s0,sp,64
    800023be:	8a2a                	mv	s4,a0
  for(p = proc; p < &proc[NPROC]; p++) {
    800023c0:	00013497          	auipc	s1,0x13
    800023c4:	8a048493          	addi	s1,s1,-1888 # 80014c60 <proc>
    if(p->state == SLEEPING && p->chan == chan) {
    800023c8:	4985                	li	s3,1
      p->state = RUNNABLE;
    800023ca:	4a89                	li	s5,2
  for(p = proc; p < &proc[NPROC]; p++) {
    800023cc:	00013917          	auipc	s2,0x13
    800023d0:	6f490913          	addi	s2,s2,1780 # 80015ac0 <tickslock>
    800023d4:	a821                	j	800023ec <wakeup+0x40>
      p->state = RUNNABLE;
    800023d6:	0354a023          	sw	s5,32(s1)
    release(&p->lock);
    800023da:	8526                	mv	a0,s1
    800023dc:	ffffe097          	auipc	ra,0xffffe
    800023e0:	7a4080e7          	jalr	1956(ra) # 80000b80 <release>
  for(p = proc; p < &proc[NPROC]; p++) {
    800023e4:	17048493          	addi	s1,s1,368
    800023e8:	01248e63          	beq	s1,s2,80002404 <wakeup+0x58>
    acquire(&p->lock);
    800023ec:	8526                	mv	a0,s1
    800023ee:	ffffe097          	auipc	ra,0xffffe
    800023f2:	6c2080e7          	jalr	1730(ra) # 80000ab0 <acquire>
    if(p->state == SLEEPING && p->chan == chan) {
    800023f6:	509c                	lw	a5,32(s1)
    800023f8:	ff3791e3          	bne	a5,s3,800023da <wakeup+0x2e>
    800023fc:	789c                	ld	a5,48(s1)
    800023fe:	fd479ee3          	bne	a5,s4,800023da <wakeup+0x2e>
    80002402:	bfd1                	j	800023d6 <wakeup+0x2a>
}
    80002404:	70e2                	ld	ra,56(sp)
    80002406:	7442                	ld	s0,48(sp)
    80002408:	74a2                	ld	s1,40(sp)
    8000240a:	7902                	ld	s2,32(sp)
    8000240c:	69e2                	ld	s3,24(sp)
    8000240e:	6a42                	ld	s4,16(sp)
    80002410:	6aa2                	ld	s5,8(sp)
    80002412:	6121                	addi	sp,sp,64
    80002414:	8082                	ret

0000000080002416 <kill>:
// Kill the process with the given pid.
// The victim won't exit until it tries to return
// to user space (see usertrap() in trap.c).
int
kill(int pid)
{
    80002416:	7179                	addi	sp,sp,-48
    80002418:	f406                	sd	ra,40(sp)
    8000241a:	f022                	sd	s0,32(sp)
    8000241c:	ec26                	sd	s1,24(sp)
    8000241e:	e84a                	sd	s2,16(sp)
    80002420:	e44e                	sd	s3,8(sp)
    80002422:	1800                	addi	s0,sp,48
    80002424:	892a                	mv	s2,a0
  struct proc *p;

  for(p = proc; p < &proc[NPROC]; p++){
    80002426:	00013497          	auipc	s1,0x13
    8000242a:	83a48493          	addi	s1,s1,-1990 # 80014c60 <proc>
    8000242e:	00013997          	auipc	s3,0x13
    80002432:	69298993          	addi	s3,s3,1682 # 80015ac0 <tickslock>
    acquire(&p->lock);
    80002436:	8526                	mv	a0,s1
    80002438:	ffffe097          	auipc	ra,0xffffe
    8000243c:	678080e7          	jalr	1656(ra) # 80000ab0 <acquire>
    if(p->pid == pid){
    80002440:	40bc                	lw	a5,64(s1)
    80002442:	03278363          	beq	a5,s2,80002468 <kill+0x52>
        p->state = RUNNABLE;
      }
      release(&p->lock);
      return 0;
    }
    release(&p->lock);
    80002446:	8526                	mv	a0,s1
    80002448:	ffffe097          	auipc	ra,0xffffe
    8000244c:	738080e7          	jalr	1848(ra) # 80000b80 <release>
  for(p = proc; p < &proc[NPROC]; p++){
    80002450:	17048493          	addi	s1,s1,368
    80002454:	ff3491e3          	bne	s1,s3,80002436 <kill+0x20>
  }
  return -1;
    80002458:	557d                	li	a0,-1
}
    8000245a:	70a2                	ld	ra,40(sp)
    8000245c:	7402                	ld	s0,32(sp)
    8000245e:	64e2                	ld	s1,24(sp)
    80002460:	6942                	ld	s2,16(sp)
    80002462:	69a2                	ld	s3,8(sp)
    80002464:	6145                	addi	sp,sp,48
    80002466:	8082                	ret
      p->killed = 1;
    80002468:	4785                	li	a5,1
    8000246a:	dc9c                	sw	a5,56(s1)
      if(p->state == SLEEPING){
    8000246c:	5098                	lw	a4,32(s1)
    8000246e:	00f70963          	beq	a4,a5,80002480 <kill+0x6a>
      release(&p->lock);
    80002472:	8526                	mv	a0,s1
    80002474:	ffffe097          	auipc	ra,0xffffe
    80002478:	70c080e7          	jalr	1804(ra) # 80000b80 <release>
      return 0;
    8000247c:	4501                	li	a0,0
    8000247e:	bff1                	j	8000245a <kill+0x44>
        p->state = RUNNABLE;
    80002480:	4789                	li	a5,2
    80002482:	d09c                	sw	a5,32(s1)
    80002484:	b7fd                	j	80002472 <kill+0x5c>

0000000080002486 <either_copyout>:
// Copy to either a user address, or kernel address,
// depending on usr_dst.
// Returns 0 on success, -1 on error.
int
either_copyout(int user_dst, uint64 dst, void *src, uint64 len)
{
    80002486:	7179                	addi	sp,sp,-48
    80002488:	f406                	sd	ra,40(sp)
    8000248a:	f022                	sd	s0,32(sp)
    8000248c:	ec26                	sd	s1,24(sp)
    8000248e:	e84a                	sd	s2,16(sp)
    80002490:	e44e                	sd	s3,8(sp)
    80002492:	e052                	sd	s4,0(sp)
    80002494:	1800                	addi	s0,sp,48
    80002496:	84aa                	mv	s1,a0
    80002498:	892e                	mv	s2,a1
    8000249a:	89b2                	mv	s3,a2
    8000249c:	8a36                	mv	s4,a3
  struct proc *p = myproc();
    8000249e:	fffff097          	auipc	ra,0xfffff
    800024a2:	5cc080e7          	jalr	1484(ra) # 80001a6a <myproc>
  if(user_dst){
    800024a6:	c08d                	beqz	s1,800024c8 <either_copyout+0x42>
    return copyout(p->pagetable, dst, src, len);
    800024a8:	86d2                	mv	a3,s4
    800024aa:	864e                	mv	a2,s3
    800024ac:	85ca                	mv	a1,s2
    800024ae:	6d28                	ld	a0,88(a0)
    800024b0:	fffff097          	auipc	ra,0xfffff
    800024b4:	2ae080e7          	jalr	686(ra) # 8000175e <copyout>
  } else {
    memmove((char *)dst, src, len);
    return 0;
  }
}
    800024b8:	70a2                	ld	ra,40(sp)
    800024ba:	7402                	ld	s0,32(sp)
    800024bc:	64e2                	ld	s1,24(sp)
    800024be:	6942                	ld	s2,16(sp)
    800024c0:	69a2                	ld	s3,8(sp)
    800024c2:	6a02                	ld	s4,0(sp)
    800024c4:	6145                	addi	sp,sp,48
    800024c6:	8082                	ret
    memmove((char *)dst, src, len);
    800024c8:	000a061b          	sext.w	a2,s4
    800024cc:	85ce                	mv	a1,s3
    800024ce:	854a                	mv	a0,s2
    800024d0:	fffff097          	auipc	ra,0xfffff
    800024d4:	90e080e7          	jalr	-1778(ra) # 80000dde <memmove>
    return 0;
    800024d8:	8526                	mv	a0,s1
    800024da:	bff9                	j	800024b8 <either_copyout+0x32>

00000000800024dc <either_copyin>:
// Copy from either a user address, or kernel address,
// depending on usr_src.
// Returns 0 on success, -1 on error.
int
either_copyin(void *dst, int user_src, uint64 src, uint64 len)
{
    800024dc:	7179                	addi	sp,sp,-48
    800024de:	f406                	sd	ra,40(sp)
    800024e0:	f022                	sd	s0,32(sp)
    800024e2:	ec26                	sd	s1,24(sp)
    800024e4:	e84a                	sd	s2,16(sp)
    800024e6:	e44e                	sd	s3,8(sp)
    800024e8:	e052                	sd	s4,0(sp)
    800024ea:	1800                	addi	s0,sp,48
    800024ec:	892a                	mv	s2,a0
    800024ee:	84ae                	mv	s1,a1
    800024f0:	89b2                	mv	s3,a2
    800024f2:	8a36                	mv	s4,a3
  struct proc *p = myproc();
    800024f4:	fffff097          	auipc	ra,0xfffff
    800024f8:	576080e7          	jalr	1398(ra) # 80001a6a <myproc>
  if(user_src){
    800024fc:	c08d                	beqz	s1,8000251e <either_copyin+0x42>
    return copyin(p->pagetable, dst, src, len);
    800024fe:	86d2                	mv	a3,s4
    80002500:	864e                	mv	a2,s3
    80002502:	85ca                	mv	a1,s2
    80002504:	6d28                	ld	a0,88(a0)
    80002506:	fffff097          	auipc	ra,0xfffff
    8000250a:	2e4080e7          	jalr	740(ra) # 800017ea <copyin>
  } else {
    memmove(dst, (char*)src, len);
    return 0;
  }
}
    8000250e:	70a2                	ld	ra,40(sp)
    80002510:	7402                	ld	s0,32(sp)
    80002512:	64e2                	ld	s1,24(sp)
    80002514:	6942                	ld	s2,16(sp)
    80002516:	69a2                	ld	s3,8(sp)
    80002518:	6a02                	ld	s4,0(sp)
    8000251a:	6145                	addi	sp,sp,48
    8000251c:	8082                	ret
    memmove(dst, (char*)src, len);
    8000251e:	000a061b          	sext.w	a2,s4
    80002522:	85ce                	mv	a1,s3
    80002524:	854a                	mv	a0,s2
    80002526:	fffff097          	auipc	ra,0xfffff
    8000252a:	8b8080e7          	jalr	-1864(ra) # 80000dde <memmove>
    return 0;
    8000252e:	8526                	mv	a0,s1
    80002530:	bff9                	j	8000250e <either_copyin+0x32>

0000000080002532 <procdump>:
// Print a process listing to console.  For debugging.
// Runs when user types ^P on console.
// No lock to avoid wedging a stuck machine further.
void
procdump(void)
{
    80002532:	715d                	addi	sp,sp,-80
    80002534:	e486                	sd	ra,72(sp)
    80002536:	e0a2                	sd	s0,64(sp)
    80002538:	fc26                	sd	s1,56(sp)
    8000253a:	f84a                	sd	s2,48(sp)
    8000253c:	f44e                	sd	s3,40(sp)
    8000253e:	f052                	sd	s4,32(sp)
    80002540:	ec56                	sd	s5,24(sp)
    80002542:	e85a                	sd	s6,16(sp)
    80002544:	e45e                	sd	s7,8(sp)
    80002546:	0880                	addi	s0,sp,80
  [ZOMBIE]    "zombie"
  };
  struct proc *p;
  char *state;

  printf("\n");
    80002548:	00006517          	auipc	a0,0x6
    8000254c:	d4850513          	addi	a0,a0,-696 # 80008290 <userret+0x200>
    80002550:	ffffe097          	auipc	ra,0xffffe
    80002554:	064080e7          	jalr	100(ra) # 800005b4 <printf>
  for(p = proc; p < &proc[NPROC]; p++){
    80002558:	00013497          	auipc	s1,0x13
    8000255c:	86848493          	addi	s1,s1,-1944 # 80014dc0 <proc+0x160>
    80002560:	00013917          	auipc	s2,0x13
    80002564:	6c090913          	addi	s2,s2,1728 # 80015c20 <bcache+0x140>
    if(p->state == UNUSED)
      continue;
    if(p->state >= 0 && p->state < NELEM(states) && states[p->state])
    80002568:	4b11                	li	s6,4
      state = states[p->state];
    else
      state = "???";
    8000256a:	00006997          	auipc	s3,0x6
    8000256e:	f5698993          	addi	s3,s3,-170 # 800084c0 <userret+0x430>
    printf("%d %s %s", p->pid, state, p->name);
    80002572:	00006a97          	auipc	s5,0x6
    80002576:	f56a8a93          	addi	s5,s5,-170 # 800084c8 <userret+0x438>
    printf("\n");
    8000257a:	00006a17          	auipc	s4,0x6
    8000257e:	d16a0a13          	addi	s4,s4,-746 # 80008290 <userret+0x200>
    if(p->state >= 0 && p->state < NELEM(states) && states[p->state])
    80002582:	00006b97          	auipc	s7,0x6
    80002586:	7a6b8b93          	addi	s7,s7,1958 # 80008d28 <states.1785>
    8000258a:	a00d                	j	800025ac <procdump+0x7a>
    printf("%d %s %s", p->pid, state, p->name);
    8000258c:	ee06a583          	lw	a1,-288(a3)
    80002590:	8556                	mv	a0,s5
    80002592:	ffffe097          	auipc	ra,0xffffe
    80002596:	022080e7          	jalr	34(ra) # 800005b4 <printf>
    printf("\n");
    8000259a:	8552                	mv	a0,s4
    8000259c:	ffffe097          	auipc	ra,0xffffe
    800025a0:	018080e7          	jalr	24(ra) # 800005b4 <printf>
  for(p = proc; p < &proc[NPROC]; p++){
    800025a4:	17048493          	addi	s1,s1,368
    800025a8:	03248163          	beq	s1,s2,800025ca <procdump+0x98>
    if(p->state == UNUSED)
    800025ac:	86a6                	mv	a3,s1
    800025ae:	ec04a783          	lw	a5,-320(s1)
    800025b2:	dbed                	beqz	a5,800025a4 <procdump+0x72>
      state = "???";
    800025b4:	864e                	mv	a2,s3
    if(p->state >= 0 && p->state < NELEM(states) && states[p->state])
    800025b6:	fcfb6be3          	bltu	s6,a5,8000258c <procdump+0x5a>
    800025ba:	1782                	slli	a5,a5,0x20
    800025bc:	9381                	srli	a5,a5,0x20
    800025be:	078e                	slli	a5,a5,0x3
    800025c0:	97de                	add	a5,a5,s7
    800025c2:	6390                	ld	a2,0(a5)
    800025c4:	f661                	bnez	a2,8000258c <procdump+0x5a>
      state = "???";
    800025c6:	864e                	mv	a2,s3
    800025c8:	b7d1                	j	8000258c <procdump+0x5a>
  }
}
    800025ca:	60a6                	ld	ra,72(sp)
    800025cc:	6406                	ld	s0,64(sp)
    800025ce:	74e2                	ld	s1,56(sp)
    800025d0:	7942                	ld	s2,48(sp)
    800025d2:	79a2                	ld	s3,40(sp)
    800025d4:	7a02                	ld	s4,32(sp)
    800025d6:	6ae2                	ld	s5,24(sp)
    800025d8:	6b42                	ld	s6,16(sp)
    800025da:	6ba2                	ld	s7,8(sp)
    800025dc:	6161                	addi	sp,sp,80
    800025de:	8082                	ret

00000000800025e0 <swtch>:
    800025e0:	00153023          	sd	ra,0(a0)
    800025e4:	00253423          	sd	sp,8(a0)
    800025e8:	e900                	sd	s0,16(a0)
    800025ea:	ed04                	sd	s1,24(a0)
    800025ec:	03253023          	sd	s2,32(a0)
    800025f0:	03353423          	sd	s3,40(a0)
    800025f4:	03453823          	sd	s4,48(a0)
    800025f8:	03553c23          	sd	s5,56(a0)
    800025fc:	05653023          	sd	s6,64(a0)
    80002600:	05753423          	sd	s7,72(a0)
    80002604:	05853823          	sd	s8,80(a0)
    80002608:	05953c23          	sd	s9,88(a0)
    8000260c:	07a53023          	sd	s10,96(a0)
    80002610:	07b53423          	sd	s11,104(a0)
    80002614:	0005b083          	ld	ra,0(a1)
    80002618:	0085b103          	ld	sp,8(a1)
    8000261c:	6980                	ld	s0,16(a1)
    8000261e:	6d84                	ld	s1,24(a1)
    80002620:	0205b903          	ld	s2,32(a1)
    80002624:	0285b983          	ld	s3,40(a1)
    80002628:	0305ba03          	ld	s4,48(a1)
    8000262c:	0385ba83          	ld	s5,56(a1)
    80002630:	0405bb03          	ld	s6,64(a1)
    80002634:	0485bb83          	ld	s7,72(a1)
    80002638:	0505bc03          	ld	s8,80(a1)
    8000263c:	0585bc83          	ld	s9,88(a1)
    80002640:	0605bd03          	ld	s10,96(a1)
    80002644:	0685bd83          	ld	s11,104(a1)
    80002648:	8082                	ret

000000008000264a <scause_desc>:
  }
}

static const char *
scause_desc(uint64 stval)
{
    8000264a:	1141                	addi	sp,sp,-16
    8000264c:	e422                	sd	s0,8(sp)
    8000264e:	0800                	addi	s0,sp,16
    80002650:	87aa                	mv	a5,a0
    [13] "load page fault",
    [14] "<reserved for future standard use>",
    [15] "store/AMO page fault",
  };
  uint64 interrupt = stval & 0x8000000000000000L;
  uint64 code = stval & ~0x8000000000000000L;
    80002652:	00151713          	slli	a4,a0,0x1
    80002656:	8305                	srli	a4,a4,0x1
  if (interrupt) {
    80002658:	04054c63          	bltz	a0,800026b0 <scause_desc+0x66>
      return intr_desc[code];
    } else {
      return "<reserved for platform use>";
    }
  } else {
    if (code < NELEM(nointr_desc)) {
    8000265c:	5685                	li	a3,-31
    8000265e:	8285                	srli	a3,a3,0x1
    80002660:	8ee9                	and	a3,a3,a0
    80002662:	caad                	beqz	a3,800026d4 <scause_desc+0x8a>
      return nointr_desc[code];
    } else if (code <= 23) {
    80002664:	46dd                	li	a3,23
      return "<reserved for future standard use>";
    80002666:	00006517          	auipc	a0,0x6
    8000266a:	e9a50513          	addi	a0,a0,-358 # 80008500 <userret+0x470>
    } else if (code <= 23) {
    8000266e:	06e6f063          	bgeu	a3,a4,800026ce <scause_desc+0x84>
    } else if (code <= 31) {
    80002672:	fc100693          	li	a3,-63
    80002676:	8285                	srli	a3,a3,0x1
    80002678:	8efd                	and	a3,a3,a5
      return "<reserved for custom use>";
    8000267a:	00006517          	auipc	a0,0x6
    8000267e:	eae50513          	addi	a0,a0,-338 # 80008528 <userret+0x498>
    } else if (code <= 31) {
    80002682:	c6b1                	beqz	a3,800026ce <scause_desc+0x84>
    } else if (code <= 47) {
    80002684:	02f00693          	li	a3,47
      return "<reserved for future standard use>";
    80002688:	00006517          	auipc	a0,0x6
    8000268c:	e7850513          	addi	a0,a0,-392 # 80008500 <userret+0x470>
    } else if (code <= 47) {
    80002690:	02e6ff63          	bgeu	a3,a4,800026ce <scause_desc+0x84>
    } else if (code <= 63) {
    80002694:	f8100513          	li	a0,-127
    80002698:	8105                	srli	a0,a0,0x1
    8000269a:	8fe9                	and	a5,a5,a0
      return "<reserved for custom use>";
    8000269c:	00006517          	auipc	a0,0x6
    800026a0:	e8c50513          	addi	a0,a0,-372 # 80008528 <userret+0x498>
    } else if (code <= 63) {
    800026a4:	c78d                	beqz	a5,800026ce <scause_desc+0x84>
    } else {
      return "<reserved for future standard use>";
    800026a6:	00006517          	auipc	a0,0x6
    800026aa:	e5a50513          	addi	a0,a0,-422 # 80008500 <userret+0x470>
    800026ae:	a005                	j	800026ce <scause_desc+0x84>
    if (code < NELEM(intr_desc)) {
    800026b0:	5505                	li	a0,-31
    800026b2:	8105                	srli	a0,a0,0x1
    800026b4:	8fe9                	and	a5,a5,a0
      return "<reserved for platform use>";
    800026b6:	00006517          	auipc	a0,0x6
    800026ba:	e9250513          	addi	a0,a0,-366 # 80008548 <userret+0x4b8>
    if (code < NELEM(intr_desc)) {
    800026be:	eb81                	bnez	a5,800026ce <scause_desc+0x84>
      return intr_desc[code];
    800026c0:	070e                	slli	a4,a4,0x3
    800026c2:	00006797          	auipc	a5,0x6
    800026c6:	68e78793          	addi	a5,a5,1678 # 80008d50 <intr_desc.1606>
    800026ca:	973e                	add	a4,a4,a5
    800026cc:	6308                	ld	a0,0(a4)
    }
  }
}
    800026ce:	6422                	ld	s0,8(sp)
    800026d0:	0141                	addi	sp,sp,16
    800026d2:	8082                	ret
      return nointr_desc[code];
    800026d4:	070e                	slli	a4,a4,0x3
    800026d6:	00006797          	auipc	a5,0x6
    800026da:	67a78793          	addi	a5,a5,1658 # 80008d50 <intr_desc.1606>
    800026de:	973e                	add	a4,a4,a5
    800026e0:	6348                	ld	a0,128(a4)
    800026e2:	b7f5                	j	800026ce <scause_desc+0x84>

00000000800026e4 <trapinit>:
{
    800026e4:	1141                	addi	sp,sp,-16
    800026e6:	e406                	sd	ra,8(sp)
    800026e8:	e022                	sd	s0,0(sp)
    800026ea:	0800                	addi	s0,sp,16
  initlock(&tickslock, "time");
    800026ec:	00006597          	auipc	a1,0x6
    800026f0:	e7c58593          	addi	a1,a1,-388 # 80008568 <userret+0x4d8>
    800026f4:	00013517          	auipc	a0,0x13
    800026f8:	3cc50513          	addi	a0,a0,972 # 80015ac0 <tickslock>
    800026fc:	ffffe097          	auipc	ra,0xffffe
    80002700:	2e0080e7          	jalr	736(ra) # 800009dc <initlock>
}
    80002704:	60a2                	ld	ra,8(sp)
    80002706:	6402                	ld	s0,0(sp)
    80002708:	0141                	addi	sp,sp,16
    8000270a:	8082                	ret

000000008000270c <trapinithart>:
{
    8000270c:	1141                	addi	sp,sp,-16
    8000270e:	e422                	sd	s0,8(sp)
    80002710:	0800                	addi	s0,sp,16
  asm volatile("csrw stvec, %0" : : "r" (x));
    80002712:	00003797          	auipc	a5,0x3
    80002716:	5de78793          	addi	a5,a5,1502 # 80005cf0 <kernelvec>
    8000271a:	10579073          	csrw	stvec,a5
}
    8000271e:	6422                	ld	s0,8(sp)
    80002720:	0141                	addi	sp,sp,16
    80002722:	8082                	ret

0000000080002724 <usertrapret>:
{
    80002724:	1141                	addi	sp,sp,-16
    80002726:	e406                	sd	ra,8(sp)
    80002728:	e022                	sd	s0,0(sp)
    8000272a:	0800                	addi	s0,sp,16
  struct proc *p = myproc();
    8000272c:	fffff097          	auipc	ra,0xfffff
    80002730:	33e080e7          	jalr	830(ra) # 80001a6a <myproc>
  asm volatile("csrr %0, sstatus" : "=r" (x) );
    80002734:	100027f3          	csrr	a5,sstatus
  w_sstatus(r_sstatus() & ~SSTATUS_SIE);
    80002738:	9bf5                	andi	a5,a5,-3
  asm volatile("csrw sstatus, %0" : : "r" (x));
    8000273a:	10079073          	csrw	sstatus,a5
  w_stvec(TRAMPOLINE + (uservec - trampoline));
    8000273e:	00006617          	auipc	a2,0x6
    80002742:	8c260613          	addi	a2,a2,-1854 # 80008000 <trampoline>
    80002746:	00006697          	auipc	a3,0x6
    8000274a:	8ba68693          	addi	a3,a3,-1862 # 80008000 <trampoline>
    8000274e:	8e91                	sub	a3,a3,a2
    80002750:	040007b7          	lui	a5,0x4000
    80002754:	17fd                	addi	a5,a5,-1
    80002756:	07b2                	slli	a5,a5,0xc
    80002758:	96be                	add	a3,a3,a5
  asm volatile("csrw stvec, %0" : : "r" (x));
    8000275a:	10569073          	csrw	stvec,a3
  p->tf->kernel_satp = r_satp();         // kernel page table
    8000275e:	7138                	ld	a4,96(a0)
  asm volatile("csrr %0, satp" : "=r" (x) );
    80002760:	180026f3          	csrr	a3,satp
    80002764:	e314                	sd	a3,0(a4)
  p->tf->kernel_sp = p->kstack + PGSIZE; // process's kernel stack
    80002766:	7138                	ld	a4,96(a0)
    80002768:	6534                	ld	a3,72(a0)
    8000276a:	6585                	lui	a1,0x1
    8000276c:	96ae                	add	a3,a3,a1
    8000276e:	e714                	sd	a3,8(a4)
  p->tf->kernel_trap = (uint64)usertrap;
    80002770:	7138                	ld	a4,96(a0)
    80002772:	00000697          	auipc	a3,0x0
    80002776:	12c68693          	addi	a3,a3,300 # 8000289e <usertrap>
    8000277a:	eb14                	sd	a3,16(a4)
  p->tf->kernel_hartid = r_tp();         // hartid for cpuid()
    8000277c:	7138                	ld	a4,96(a0)
  asm volatile("mv %0, tp" : "=r" (x) );
    8000277e:	8692                	mv	a3,tp
    80002780:	f314                	sd	a3,32(a4)
  asm volatile("csrr %0, sstatus" : "=r" (x) );
    80002782:	100026f3          	csrr	a3,sstatus
  x &= ~SSTATUS_SPP; // clear SPP to 0 for user mode
    80002786:	eff6f693          	andi	a3,a3,-257
  x |= SSTATUS_SPIE; // enable interrupts in user mode
    8000278a:	0206e693          	ori	a3,a3,32
  asm volatile("csrw sstatus, %0" : : "r" (x));
    8000278e:	10069073          	csrw	sstatus,a3
  w_sepc(p->tf->epc);
    80002792:	7138                	ld	a4,96(a0)
  asm volatile("csrw sepc, %0" : : "r" (x));
    80002794:	6f18                	ld	a4,24(a4)
    80002796:	14171073          	csrw	sepc,a4
  uint64 satp = MAKE_SATP(p->pagetable);
    8000279a:	6d2c                	ld	a1,88(a0)
    8000279c:	81b1                	srli	a1,a1,0xc
  uint64 fn = TRAMPOLINE + (userret - trampoline);
    8000279e:	00006717          	auipc	a4,0x6
    800027a2:	8f270713          	addi	a4,a4,-1806 # 80008090 <userret>
    800027a6:	8f11                	sub	a4,a4,a2
    800027a8:	97ba                	add	a5,a5,a4
  ((void (*)(uint64,uint64))fn)(TRAPFRAME, satp);
    800027aa:	577d                	li	a4,-1
    800027ac:	177e                	slli	a4,a4,0x3f
    800027ae:	8dd9                	or	a1,a1,a4
    800027b0:	02000537          	lui	a0,0x2000
    800027b4:	157d                	addi	a0,a0,-1
    800027b6:	0536                	slli	a0,a0,0xd
    800027b8:	9782                	jalr	a5
}
    800027ba:	60a2                	ld	ra,8(sp)
    800027bc:	6402                	ld	s0,0(sp)
    800027be:	0141                	addi	sp,sp,16
    800027c0:	8082                	ret

00000000800027c2 <clockintr>:
{
    800027c2:	1101                	addi	sp,sp,-32
    800027c4:	ec06                	sd	ra,24(sp)
    800027c6:	e822                	sd	s0,16(sp)
    800027c8:	e426                	sd	s1,8(sp)
    800027ca:	1000                	addi	s0,sp,32
  acquire(&tickslock);
    800027cc:	00013497          	auipc	s1,0x13
    800027d0:	2f448493          	addi	s1,s1,756 # 80015ac0 <tickslock>
    800027d4:	8526                	mv	a0,s1
    800027d6:	ffffe097          	auipc	ra,0xffffe
    800027da:	2da080e7          	jalr	730(ra) # 80000ab0 <acquire>
  ticks++;
    800027de:	00026517          	auipc	a0,0x26
    800027e2:	86250513          	addi	a0,a0,-1950 # 80028040 <ticks>
    800027e6:	411c                	lw	a5,0(a0)
    800027e8:	2785                	addiw	a5,a5,1
    800027ea:	c11c                	sw	a5,0(a0)
  wakeup(&ticks);
    800027ec:	00000097          	auipc	ra,0x0
    800027f0:	bc0080e7          	jalr	-1088(ra) # 800023ac <wakeup>
  release(&tickslock);
    800027f4:	8526                	mv	a0,s1
    800027f6:	ffffe097          	auipc	ra,0xffffe
    800027fa:	38a080e7          	jalr	906(ra) # 80000b80 <release>
}
    800027fe:	60e2                	ld	ra,24(sp)
    80002800:	6442                	ld	s0,16(sp)
    80002802:	64a2                	ld	s1,8(sp)
    80002804:	6105                	addi	sp,sp,32
    80002806:	8082                	ret

0000000080002808 <devintr>:
{
    80002808:	1101                	addi	sp,sp,-32
    8000280a:	ec06                	sd	ra,24(sp)
    8000280c:	e822                	sd	s0,16(sp)
    8000280e:	e426                	sd	s1,8(sp)
    80002810:	1000                	addi	s0,sp,32
  asm volatile("csrr %0, scause" : "=r" (x) );
    80002812:	14202773          	csrr	a4,scause
  if((scause & 0x8000000000000000L) &&
    80002816:	00074d63          	bltz	a4,80002830 <devintr+0x28>
  } else if(scause == 0x8000000000000001L){
    8000281a:	57fd                	li	a5,-1
    8000281c:	17fe                	slli	a5,a5,0x3f
    8000281e:	0785                	addi	a5,a5,1
    return 0;
    80002820:	4501                	li	a0,0
  } else if(scause == 0x8000000000000001L){
    80002822:	04f70d63          	beq	a4,a5,8000287c <devintr+0x74>
}
    80002826:	60e2                	ld	ra,24(sp)
    80002828:	6442                	ld	s0,16(sp)
    8000282a:	64a2                	ld	s1,8(sp)
    8000282c:	6105                	addi	sp,sp,32
    8000282e:	8082                	ret
     (scause & 0xff) == 9){
    80002830:	0ff77793          	andi	a5,a4,255
  if((scause & 0x8000000000000000L) &&
    80002834:	46a5                	li	a3,9
    80002836:	fed792e3          	bne	a5,a3,8000281a <devintr+0x12>
    int irq = plic_claim();
    8000283a:	00003097          	auipc	ra,0x3
    8000283e:	5be080e7          	jalr	1470(ra) # 80005df8 <plic_claim>
    80002842:	84aa                	mv	s1,a0
    if(irq == UART0_IRQ){
    80002844:	47a9                	li	a5,10
    80002846:	00f50a63          	beq	a0,a5,8000285a <devintr+0x52>
    } else if(irq == VIRTIO0_IRQ || irq == VIRTIO1_IRQ ){
    8000284a:	fff5079b          	addiw	a5,a0,-1
    8000284e:	4705                	li	a4,1
    80002850:	00f77a63          	bgeu	a4,a5,80002864 <devintr+0x5c>
    return 1;
    80002854:	4505                	li	a0,1
    if(irq)
    80002856:	d8e1                	beqz	s1,80002826 <devintr+0x1e>
    80002858:	a819                	j	8000286e <devintr+0x66>
      uartintr();
    8000285a:	ffffe097          	auipc	ra,0xffffe
    8000285e:	ffa080e7          	jalr	-6(ra) # 80000854 <uartintr>
    80002862:	a031                	j	8000286e <devintr+0x66>
      virtio_disk_intr(irq - VIRTIO0_IRQ);
    80002864:	853e                	mv	a0,a5
    80002866:	00004097          	auipc	ra,0x4
    8000286a:	b86080e7          	jalr	-1146(ra) # 800063ec <virtio_disk_intr>
      plic_complete(irq);
    8000286e:	8526                	mv	a0,s1
    80002870:	00003097          	auipc	ra,0x3
    80002874:	5ac080e7          	jalr	1452(ra) # 80005e1c <plic_complete>
    return 1;
    80002878:	4505                	li	a0,1
    8000287a:	b775                	j	80002826 <devintr+0x1e>
    if(cpuid() == 0){
    8000287c:	fffff097          	auipc	ra,0xfffff
    80002880:	1c2080e7          	jalr	450(ra) # 80001a3e <cpuid>
    80002884:	c901                	beqz	a0,80002894 <devintr+0x8c>
  asm volatile("csrr %0, sip" : "=r" (x) );
    80002886:	144027f3          	csrr	a5,sip
    w_sip(r_sip() & ~2);
    8000288a:	9bf5                	andi	a5,a5,-3
  asm volatile("csrw sip, %0" : : "r" (x));
    8000288c:	14479073          	csrw	sip,a5
    return 2;
    80002890:	4509                	li	a0,2
    80002892:	bf51                	j	80002826 <devintr+0x1e>
      clockintr();
    80002894:	00000097          	auipc	ra,0x0
    80002898:	f2e080e7          	jalr	-210(ra) # 800027c2 <clockintr>
    8000289c:	b7ed                	j	80002886 <devintr+0x7e>

000000008000289e <usertrap>:
{
    8000289e:	7179                	addi	sp,sp,-48
    800028a0:	f406                	sd	ra,40(sp)
    800028a2:	f022                	sd	s0,32(sp)
    800028a4:	ec26                	sd	s1,24(sp)
    800028a6:	e84a                	sd	s2,16(sp)
    800028a8:	e44e                	sd	s3,8(sp)
    800028aa:	1800                	addi	s0,sp,48
  asm volatile("csrr %0, sstatus" : "=r" (x) );
    800028ac:	100027f3          	csrr	a5,sstatus
  if((r_sstatus() & SSTATUS_SPP) != 0)
    800028b0:	1007f793          	andi	a5,a5,256
    800028b4:	e3b5                	bnez	a5,80002918 <usertrap+0x7a>
  asm volatile("csrw stvec, %0" : : "r" (x));
    800028b6:	00003797          	auipc	a5,0x3
    800028ba:	43a78793          	addi	a5,a5,1082 # 80005cf0 <kernelvec>
    800028be:	10579073          	csrw	stvec,a5
  struct proc *p = myproc();
    800028c2:	fffff097          	auipc	ra,0xfffff
    800028c6:	1a8080e7          	jalr	424(ra) # 80001a6a <myproc>
    800028ca:	84aa                	mv	s1,a0
  p->tf->epc = r_sepc();
    800028cc:	713c                	ld	a5,96(a0)
  asm volatile("csrr %0, sepc" : "=r" (x) );
    800028ce:	14102773          	csrr	a4,sepc
    800028d2:	ef98                	sd	a4,24(a5)
  asm volatile("csrr %0, scause" : "=r" (x) );
    800028d4:	14202773          	csrr	a4,scause
  if(r_scause() == 8){
    800028d8:	47a1                	li	a5,8
    800028da:	04f71d63          	bne	a4,a5,80002934 <usertrap+0x96>
    if(p->killed)
    800028de:	5d1c                	lw	a5,56(a0)
    800028e0:	e7a1                	bnez	a5,80002928 <usertrap+0x8a>
    p->tf->epc += 4;
    800028e2:	70b8                	ld	a4,96(s1)
    800028e4:	6f1c                	ld	a5,24(a4)
    800028e6:	0791                	addi	a5,a5,4
    800028e8:	ef1c                	sd	a5,24(a4)
  asm volatile("csrr %0, sstatus" : "=r" (x) );
    800028ea:	100027f3          	csrr	a5,sstatus
  w_sstatus(r_sstatus() | SSTATUS_SIE);
    800028ee:	0027e793          	ori	a5,a5,2
  asm volatile("csrw sstatus, %0" : : "r" (x));
    800028f2:	10079073          	csrw	sstatus,a5
    syscall();
    800028f6:	00000097          	auipc	ra,0x0
    800028fa:	2fe080e7          	jalr	766(ra) # 80002bf4 <syscall>
  if(p->killed)
    800028fe:	5c9c                	lw	a5,56(s1)
    80002900:	e3cd                	bnez	a5,800029a2 <usertrap+0x104>
  usertrapret();
    80002902:	00000097          	auipc	ra,0x0
    80002906:	e22080e7          	jalr	-478(ra) # 80002724 <usertrapret>
}
    8000290a:	70a2                	ld	ra,40(sp)
    8000290c:	7402                	ld	s0,32(sp)
    8000290e:	64e2                	ld	s1,24(sp)
    80002910:	6942                	ld	s2,16(sp)
    80002912:	69a2                	ld	s3,8(sp)
    80002914:	6145                	addi	sp,sp,48
    80002916:	8082                	ret
    panic("usertrap: not from user mode");
    80002918:	00006517          	auipc	a0,0x6
    8000291c:	c5850513          	addi	a0,a0,-936 # 80008570 <userret+0x4e0>
    80002920:	ffffe097          	auipc	ra,0xffffe
    80002924:	c3a080e7          	jalr	-966(ra) # 8000055a <panic>
      exit(-1);
    80002928:	557d                	li	a0,-1
    8000292a:	fffff097          	auipc	ra,0xfffff
    8000292e:	7b2080e7          	jalr	1970(ra) # 800020dc <exit>
    80002932:	bf45                	j	800028e2 <usertrap+0x44>
  } else if((which_dev = devintr()) != 0){
    80002934:	00000097          	auipc	ra,0x0
    80002938:	ed4080e7          	jalr	-300(ra) # 80002808 <devintr>
    8000293c:	892a                	mv	s2,a0
    8000293e:	c501                	beqz	a0,80002946 <usertrap+0xa8>
  if(p->killed)
    80002940:	5c9c                	lw	a5,56(s1)
    80002942:	cba1                	beqz	a5,80002992 <usertrap+0xf4>
    80002944:	a091                	j	80002988 <usertrap+0xea>
  asm volatile("csrr %0, scause" : "=r" (x) );
    80002946:	142029f3          	csrr	s3,scause
    8000294a:	14202573          	csrr	a0,scause
    printf("usertrap(): unexpected scause %p (%s) pid=%d\n", r_scause(), scause_desc(r_scause()), p->pid);
    8000294e:	00000097          	auipc	ra,0x0
    80002952:	cfc080e7          	jalr	-772(ra) # 8000264a <scause_desc>
    80002956:	862a                	mv	a2,a0
    80002958:	40b4                	lw	a3,64(s1)
    8000295a:	85ce                	mv	a1,s3
    8000295c:	00006517          	auipc	a0,0x6
    80002960:	c3450513          	addi	a0,a0,-972 # 80008590 <userret+0x500>
    80002964:	ffffe097          	auipc	ra,0xffffe
    80002968:	c50080e7          	jalr	-944(ra) # 800005b4 <printf>
  asm volatile("csrr %0, sepc" : "=r" (x) );
    8000296c:	141025f3          	csrr	a1,sepc
  asm volatile("csrr %0, stval" : "=r" (x) );
    80002970:	14302673          	csrr	a2,stval
    printf("            sepc=%p stval=%p\n", r_sepc(), r_stval());
    80002974:	00006517          	auipc	a0,0x6
    80002978:	c4c50513          	addi	a0,a0,-948 # 800085c0 <userret+0x530>
    8000297c:	ffffe097          	auipc	ra,0xffffe
    80002980:	c38080e7          	jalr	-968(ra) # 800005b4 <printf>
    p->killed = 1;
    80002984:	4785                	li	a5,1
    80002986:	dc9c                	sw	a5,56(s1)
    exit(-1);
    80002988:	557d                	li	a0,-1
    8000298a:	fffff097          	auipc	ra,0xfffff
    8000298e:	752080e7          	jalr	1874(ra) # 800020dc <exit>
  if(which_dev == 2)
    80002992:	4789                	li	a5,2
    80002994:	f6f917e3          	bne	s2,a5,80002902 <usertrap+0x64>
    yield();
    80002998:	00000097          	auipc	ra,0x0
    8000299c:	852080e7          	jalr	-1966(ra) # 800021ea <yield>
    800029a0:	b78d                	j	80002902 <usertrap+0x64>
  int which_dev = 0;
    800029a2:	4901                	li	s2,0
    800029a4:	b7d5                	j	80002988 <usertrap+0xea>

00000000800029a6 <kerneltrap>:
{
    800029a6:	7179                	addi	sp,sp,-48
    800029a8:	f406                	sd	ra,40(sp)
    800029aa:	f022                	sd	s0,32(sp)
    800029ac:	ec26                	sd	s1,24(sp)
    800029ae:	e84a                	sd	s2,16(sp)
    800029b0:	e44e                	sd	s3,8(sp)
    800029b2:	1800                	addi	s0,sp,48
  asm volatile("csrr %0, sepc" : "=r" (x) );
    800029b4:	14102973          	csrr	s2,sepc
  asm volatile("csrr %0, sstatus" : "=r" (x) );
    800029b8:	100024f3          	csrr	s1,sstatus
  asm volatile("csrr %0, scause" : "=r" (x) );
    800029bc:	142029f3          	csrr	s3,scause
  if((sstatus & SSTATUS_SPP) == 0)
    800029c0:	1004f793          	andi	a5,s1,256
    800029c4:	cb85                	beqz	a5,800029f4 <kerneltrap+0x4e>
  asm volatile("csrr %0, sstatus" : "=r" (x) );
    800029c6:	100027f3          	csrr	a5,sstatus
  return (x & SSTATUS_SIE) != 0;
    800029ca:	8b89                	andi	a5,a5,2
  if(intr_get() != 0)
    800029cc:	ef85                	bnez	a5,80002a04 <kerneltrap+0x5e>
  if((which_dev = devintr()) == 0){
    800029ce:	00000097          	auipc	ra,0x0
    800029d2:	e3a080e7          	jalr	-454(ra) # 80002808 <devintr>
    800029d6:	cd1d                	beqz	a0,80002a14 <kerneltrap+0x6e>
  if(which_dev == 2 && myproc() != 0 && myproc()->state == RUNNING)
    800029d8:	4789                	li	a5,2
    800029da:	08f50063          	beq	a0,a5,80002a5a <kerneltrap+0xb4>
  asm volatile("csrw sepc, %0" : : "r" (x));
    800029de:	14191073          	csrw	sepc,s2
  asm volatile("csrw sstatus, %0" : : "r" (x));
    800029e2:	10049073          	csrw	sstatus,s1
}
    800029e6:	70a2                	ld	ra,40(sp)
    800029e8:	7402                	ld	s0,32(sp)
    800029ea:	64e2                	ld	s1,24(sp)
    800029ec:	6942                	ld	s2,16(sp)
    800029ee:	69a2                	ld	s3,8(sp)
    800029f0:	6145                	addi	sp,sp,48
    800029f2:	8082                	ret
    panic("kerneltrap: not from supervisor mode");
    800029f4:	00006517          	auipc	a0,0x6
    800029f8:	bec50513          	addi	a0,a0,-1044 # 800085e0 <userret+0x550>
    800029fc:	ffffe097          	auipc	ra,0xffffe
    80002a00:	b5e080e7          	jalr	-1186(ra) # 8000055a <panic>
    panic("kerneltrap: interrupts enabled");
    80002a04:	00006517          	auipc	a0,0x6
    80002a08:	c0450513          	addi	a0,a0,-1020 # 80008608 <userret+0x578>
    80002a0c:	ffffe097          	auipc	ra,0xffffe
    80002a10:	b4e080e7          	jalr	-1202(ra) # 8000055a <panic>
    printf("scause %p (%s)\n", scause, scause_desc(scause));
    80002a14:	854e                	mv	a0,s3
    80002a16:	00000097          	auipc	ra,0x0
    80002a1a:	c34080e7          	jalr	-972(ra) # 8000264a <scause_desc>
    80002a1e:	862a                	mv	a2,a0
    80002a20:	85ce                	mv	a1,s3
    80002a22:	00006517          	auipc	a0,0x6
    80002a26:	c0650513          	addi	a0,a0,-1018 # 80008628 <userret+0x598>
    80002a2a:	ffffe097          	auipc	ra,0xffffe
    80002a2e:	b8a080e7          	jalr	-1142(ra) # 800005b4 <printf>
  asm volatile("csrr %0, sepc" : "=r" (x) );
    80002a32:	141025f3          	csrr	a1,sepc
  asm volatile("csrr %0, stval" : "=r" (x) );
    80002a36:	14302673          	csrr	a2,stval
    printf("sepc=%p stval=%p\n", r_sepc(), r_stval());
    80002a3a:	00006517          	auipc	a0,0x6
    80002a3e:	bfe50513          	addi	a0,a0,-1026 # 80008638 <userret+0x5a8>
    80002a42:	ffffe097          	auipc	ra,0xffffe
    80002a46:	b72080e7          	jalr	-1166(ra) # 800005b4 <printf>
    panic("kerneltrap");
    80002a4a:	00006517          	auipc	a0,0x6
    80002a4e:	c0650513          	addi	a0,a0,-1018 # 80008650 <userret+0x5c0>
    80002a52:	ffffe097          	auipc	ra,0xffffe
    80002a56:	b08080e7          	jalr	-1272(ra) # 8000055a <panic>
  if(which_dev == 2 && myproc() != 0 && myproc()->state == RUNNING)
    80002a5a:	fffff097          	auipc	ra,0xfffff
    80002a5e:	010080e7          	jalr	16(ra) # 80001a6a <myproc>
    80002a62:	dd35                	beqz	a0,800029de <kerneltrap+0x38>
    80002a64:	fffff097          	auipc	ra,0xfffff
    80002a68:	006080e7          	jalr	6(ra) # 80001a6a <myproc>
    80002a6c:	5118                	lw	a4,32(a0)
    80002a6e:	478d                	li	a5,3
    80002a70:	f6f717e3          	bne	a4,a5,800029de <kerneltrap+0x38>
    yield();
    80002a74:	fffff097          	auipc	ra,0xfffff
    80002a78:	776080e7          	jalr	1910(ra) # 800021ea <yield>
    80002a7c:	b78d                	j	800029de <kerneltrap+0x38>

0000000080002a7e <argraw>:
  return strlen(buf);
}

static uint64
argraw(int n)
{
    80002a7e:	1101                	addi	sp,sp,-32
    80002a80:	ec06                	sd	ra,24(sp)
    80002a82:	e822                	sd	s0,16(sp)
    80002a84:	e426                	sd	s1,8(sp)
    80002a86:	1000                	addi	s0,sp,32
    80002a88:	84aa                	mv	s1,a0
  struct proc *p = myproc();
    80002a8a:	fffff097          	auipc	ra,0xfffff
    80002a8e:	fe0080e7          	jalr	-32(ra) # 80001a6a <myproc>
  switch (n) {
    80002a92:	4795                	li	a5,5
    80002a94:	0497e163          	bltu	a5,s1,80002ad6 <argraw+0x58>
    80002a98:	048a                	slli	s1,s1,0x2
    80002a9a:	00006717          	auipc	a4,0x6
    80002a9e:	3b670713          	addi	a4,a4,950 # 80008e50 <nointr_desc.1607+0x80>
    80002aa2:	94ba                	add	s1,s1,a4
    80002aa4:	409c                	lw	a5,0(s1)
    80002aa6:	97ba                	add	a5,a5,a4
    80002aa8:	8782                	jr	a5
  case 0:
    return p->tf->a0;
    80002aaa:	713c                	ld	a5,96(a0)
    80002aac:	7ba8                	ld	a0,112(a5)
  case 5:
    return p->tf->a5;
  }
  panic("argraw");
  return -1;
}
    80002aae:	60e2                	ld	ra,24(sp)
    80002ab0:	6442                	ld	s0,16(sp)
    80002ab2:	64a2                	ld	s1,8(sp)
    80002ab4:	6105                	addi	sp,sp,32
    80002ab6:	8082                	ret
    return p->tf->a1;
    80002ab8:	713c                	ld	a5,96(a0)
    80002aba:	7fa8                	ld	a0,120(a5)
    80002abc:	bfcd                	j	80002aae <argraw+0x30>
    return p->tf->a2;
    80002abe:	713c                	ld	a5,96(a0)
    80002ac0:	63c8                	ld	a0,128(a5)
    80002ac2:	b7f5                	j	80002aae <argraw+0x30>
    return p->tf->a3;
    80002ac4:	713c                	ld	a5,96(a0)
    80002ac6:	67c8                	ld	a0,136(a5)
    80002ac8:	b7dd                	j	80002aae <argraw+0x30>
    return p->tf->a4;
    80002aca:	713c                	ld	a5,96(a0)
    80002acc:	6bc8                	ld	a0,144(a5)
    80002ace:	b7c5                	j	80002aae <argraw+0x30>
    return p->tf->a5;
    80002ad0:	713c                	ld	a5,96(a0)
    80002ad2:	6fc8                	ld	a0,152(a5)
    80002ad4:	bfe9                	j	80002aae <argraw+0x30>
  panic("argraw");
    80002ad6:	00006517          	auipc	a0,0x6
    80002ada:	d8250513          	addi	a0,a0,-638 # 80008858 <userret+0x7c8>
    80002ade:	ffffe097          	auipc	ra,0xffffe
    80002ae2:	a7c080e7          	jalr	-1412(ra) # 8000055a <panic>

0000000080002ae6 <fetchaddr>:
{
    80002ae6:	1101                	addi	sp,sp,-32
    80002ae8:	ec06                	sd	ra,24(sp)
    80002aea:	e822                	sd	s0,16(sp)
    80002aec:	e426                	sd	s1,8(sp)
    80002aee:	e04a                	sd	s2,0(sp)
    80002af0:	1000                	addi	s0,sp,32
    80002af2:	84aa                	mv	s1,a0
    80002af4:	892e                	mv	s2,a1
  struct proc *p = myproc();
    80002af6:	fffff097          	auipc	ra,0xfffff
    80002afa:	f74080e7          	jalr	-140(ra) # 80001a6a <myproc>
  if(addr >= p->sz || addr+sizeof(uint64) > p->sz)
    80002afe:	693c                	ld	a5,80(a0)
    80002b00:	02f4f863          	bgeu	s1,a5,80002b30 <fetchaddr+0x4a>
    80002b04:	00848713          	addi	a4,s1,8
    80002b08:	02e7e663          	bltu	a5,a4,80002b34 <fetchaddr+0x4e>
  if(copyin(p->pagetable, (char *)ip, addr, sizeof(*ip)) != 0)
    80002b0c:	46a1                	li	a3,8
    80002b0e:	8626                	mv	a2,s1
    80002b10:	85ca                	mv	a1,s2
    80002b12:	6d28                	ld	a0,88(a0)
    80002b14:	fffff097          	auipc	ra,0xfffff
    80002b18:	cd6080e7          	jalr	-810(ra) # 800017ea <copyin>
    80002b1c:	00a03533          	snez	a0,a0
    80002b20:	40a00533          	neg	a0,a0
}
    80002b24:	60e2                	ld	ra,24(sp)
    80002b26:	6442                	ld	s0,16(sp)
    80002b28:	64a2                	ld	s1,8(sp)
    80002b2a:	6902                	ld	s2,0(sp)
    80002b2c:	6105                	addi	sp,sp,32
    80002b2e:	8082                	ret
    return -1;
    80002b30:	557d                	li	a0,-1
    80002b32:	bfcd                	j	80002b24 <fetchaddr+0x3e>
    80002b34:	557d                	li	a0,-1
    80002b36:	b7fd                	j	80002b24 <fetchaddr+0x3e>

0000000080002b38 <fetchstr>:
{
    80002b38:	7179                	addi	sp,sp,-48
    80002b3a:	f406                	sd	ra,40(sp)
    80002b3c:	f022                	sd	s0,32(sp)
    80002b3e:	ec26                	sd	s1,24(sp)
    80002b40:	e84a                	sd	s2,16(sp)
    80002b42:	e44e                	sd	s3,8(sp)
    80002b44:	1800                	addi	s0,sp,48
    80002b46:	892a                	mv	s2,a0
    80002b48:	84ae                	mv	s1,a1
    80002b4a:	89b2                	mv	s3,a2
  struct proc *p = myproc();
    80002b4c:	fffff097          	auipc	ra,0xfffff
    80002b50:	f1e080e7          	jalr	-226(ra) # 80001a6a <myproc>
  int err = copyinstr(p->pagetable, buf, addr, max);
    80002b54:	86ce                	mv	a3,s3
    80002b56:	864a                	mv	a2,s2
    80002b58:	85a6                	mv	a1,s1
    80002b5a:	6d28                	ld	a0,88(a0)
    80002b5c:	fffff097          	auipc	ra,0xfffff
    80002b60:	d1a080e7          	jalr	-742(ra) # 80001876 <copyinstr>
  if(err < 0)
    80002b64:	00054763          	bltz	a0,80002b72 <fetchstr+0x3a>
  return strlen(buf);
    80002b68:	8526                	mv	a0,s1
    80002b6a:	ffffe097          	auipc	ra,0xffffe
    80002b6e:	39c080e7          	jalr	924(ra) # 80000f06 <strlen>
}
    80002b72:	70a2                	ld	ra,40(sp)
    80002b74:	7402                	ld	s0,32(sp)
    80002b76:	64e2                	ld	s1,24(sp)
    80002b78:	6942                	ld	s2,16(sp)
    80002b7a:	69a2                	ld	s3,8(sp)
    80002b7c:	6145                	addi	sp,sp,48
    80002b7e:	8082                	ret

0000000080002b80 <argint>:

// Fetch the nth 32-bit system call argument.
int
argint(int n, int *ip)
{
    80002b80:	1101                	addi	sp,sp,-32
    80002b82:	ec06                	sd	ra,24(sp)
    80002b84:	e822                	sd	s0,16(sp)
    80002b86:	e426                	sd	s1,8(sp)
    80002b88:	1000                	addi	s0,sp,32
    80002b8a:	84ae                	mv	s1,a1
  *ip = argraw(n);
    80002b8c:	00000097          	auipc	ra,0x0
    80002b90:	ef2080e7          	jalr	-270(ra) # 80002a7e <argraw>
    80002b94:	c088                	sw	a0,0(s1)
  return 0;
}
    80002b96:	4501                	li	a0,0
    80002b98:	60e2                	ld	ra,24(sp)
    80002b9a:	6442                	ld	s0,16(sp)
    80002b9c:	64a2                	ld	s1,8(sp)
    80002b9e:	6105                	addi	sp,sp,32
    80002ba0:	8082                	ret

0000000080002ba2 <argaddr>:
// Retrieve an argument as a pointer.
// Doesn't check for legality, since
// copyin/copyout will do that.
int
argaddr(int n, uint64 *ip)
{
    80002ba2:	1101                	addi	sp,sp,-32
    80002ba4:	ec06                	sd	ra,24(sp)
    80002ba6:	e822                	sd	s0,16(sp)
    80002ba8:	e426                	sd	s1,8(sp)
    80002baa:	1000                	addi	s0,sp,32
    80002bac:	84ae                	mv	s1,a1
  *ip = argraw(n);
    80002bae:	00000097          	auipc	ra,0x0
    80002bb2:	ed0080e7          	jalr	-304(ra) # 80002a7e <argraw>
    80002bb6:	e088                	sd	a0,0(s1)
  return 0;
}
    80002bb8:	4501                	li	a0,0
    80002bba:	60e2                	ld	ra,24(sp)
    80002bbc:	6442                	ld	s0,16(sp)
    80002bbe:	64a2                	ld	s1,8(sp)
    80002bc0:	6105                	addi	sp,sp,32
    80002bc2:	8082                	ret

0000000080002bc4 <argstr>:
// Fetch the nth word-sized system call argument as a null-terminated string.
// Copies into buf, at most max.
// Returns string length if OK (including nul), -1 if error.
int
argstr(int n, char *buf, int max)
{
    80002bc4:	1101                	addi	sp,sp,-32
    80002bc6:	ec06                	sd	ra,24(sp)
    80002bc8:	e822                	sd	s0,16(sp)
    80002bca:	e426                	sd	s1,8(sp)
    80002bcc:	e04a                	sd	s2,0(sp)
    80002bce:	1000                	addi	s0,sp,32
    80002bd0:	84ae                	mv	s1,a1
    80002bd2:	8932                	mv	s2,a2
  *ip = argraw(n);
    80002bd4:	00000097          	auipc	ra,0x0
    80002bd8:	eaa080e7          	jalr	-342(ra) # 80002a7e <argraw>
  uint64 addr;
  if(argaddr(n, &addr) < 0)
    return -1;
  return fetchstr(addr, buf, max);
    80002bdc:	864a                	mv	a2,s2
    80002bde:	85a6                	mv	a1,s1
    80002be0:	00000097          	auipc	ra,0x0
    80002be4:	f58080e7          	jalr	-168(ra) # 80002b38 <fetchstr>
}
    80002be8:	60e2                	ld	ra,24(sp)
    80002bea:	6442                	ld	s0,16(sp)
    80002bec:	64a2                	ld	s1,8(sp)
    80002bee:	6902                	ld	s2,0(sp)
    80002bf0:	6105                	addi	sp,sp,32
    80002bf2:	8082                	ret

0000000080002bf4 <syscall>:
[SYS_ntas]    sys_ntas,
};

void
syscall(void)
{
    80002bf4:	1101                	addi	sp,sp,-32
    80002bf6:	ec06                	sd	ra,24(sp)
    80002bf8:	e822                	sd	s0,16(sp)
    80002bfa:	e426                	sd	s1,8(sp)
    80002bfc:	e04a                	sd	s2,0(sp)
    80002bfe:	1000                	addi	s0,sp,32
  int num;
  struct proc *p = myproc();
    80002c00:	fffff097          	auipc	ra,0xfffff
    80002c04:	e6a080e7          	jalr	-406(ra) # 80001a6a <myproc>
    80002c08:	84aa                	mv	s1,a0

  num = p->tf->a7;
    80002c0a:	06053903          	ld	s2,96(a0)
    80002c0e:	0a893783          	ld	a5,168(s2)
    80002c12:	0007869b          	sext.w	a3,a5
  if(num > 0 && num < NELEM(syscalls) && syscalls[num]) {
    80002c16:	37fd                	addiw	a5,a5,-1
    80002c18:	4755                	li	a4,21
    80002c1a:	00f76f63          	bltu	a4,a5,80002c38 <syscall+0x44>
    80002c1e:	00369713          	slli	a4,a3,0x3
    80002c22:	00006797          	auipc	a5,0x6
    80002c26:	24678793          	addi	a5,a5,582 # 80008e68 <syscalls>
    80002c2a:	97ba                	add	a5,a5,a4
    80002c2c:	639c                	ld	a5,0(a5)
    80002c2e:	c789                	beqz	a5,80002c38 <syscall+0x44>
    p->tf->a0 = syscalls[num]();
    80002c30:	9782                	jalr	a5
    80002c32:	06a93823          	sd	a0,112(s2)
    80002c36:	a839                	j	80002c54 <syscall+0x60>
  } else {
    printf("%d %s: unknown sys call %d\n",
    80002c38:	16048613          	addi	a2,s1,352
    80002c3c:	40ac                	lw	a1,64(s1)
    80002c3e:	00006517          	auipc	a0,0x6
    80002c42:	c2250513          	addi	a0,a0,-990 # 80008860 <userret+0x7d0>
    80002c46:	ffffe097          	auipc	ra,0xffffe
    80002c4a:	96e080e7          	jalr	-1682(ra) # 800005b4 <printf>
            p->pid, p->name, num);
    p->tf->a0 = -1;
    80002c4e:	70bc                	ld	a5,96(s1)
    80002c50:	577d                	li	a4,-1
    80002c52:	fbb8                	sd	a4,112(a5)
  }
}
    80002c54:	60e2                	ld	ra,24(sp)
    80002c56:	6442                	ld	s0,16(sp)
    80002c58:	64a2                	ld	s1,8(sp)
    80002c5a:	6902                	ld	s2,0(sp)
    80002c5c:	6105                	addi	sp,sp,32
    80002c5e:	8082                	ret

0000000080002c60 <sys_exit>:
#include "spinlock.h"
#include "proc.h"

uint64
sys_exit(void)
{
    80002c60:	1101                	addi	sp,sp,-32
    80002c62:	ec06                	sd	ra,24(sp)
    80002c64:	e822                	sd	s0,16(sp)
    80002c66:	1000                	addi	s0,sp,32
  int n;
  if(argint(0, &n) < 0)
    80002c68:	fec40593          	addi	a1,s0,-20
    80002c6c:	4501                	li	a0,0
    80002c6e:	00000097          	auipc	ra,0x0
    80002c72:	f12080e7          	jalr	-238(ra) # 80002b80 <argint>
    return -1;
    80002c76:	57fd                	li	a5,-1
  if(argint(0, &n) < 0)
    80002c78:	00054963          	bltz	a0,80002c8a <sys_exit+0x2a>
  exit(n);
    80002c7c:	fec42503          	lw	a0,-20(s0)
